(dp0
S'METTS MARK'
p1
(dp2
S'to_messages'
p3
I807
sS'deferral_payments'
p4
S'NaN'
p5
sS'expenses'
p6
I94299
sS'poi'
p7
I00
sS'deferred_income'
p8
g5
sS'email_address'
p9
S'mark.metts@enron.com'
p10
sS'long_term_incentive'
p11
g5
sS'restricted_stock_deferred'
p12
g5
sS'shared_receipt_with_poi'
p13
I702
sS'loan_advances'
p14
g5
sS'from_messages'
p15
I29
sS'other'
p16
I1740
sS'director_fees'
p17
g5
sS'total_messages'
p18
cnumpy.core.multiarray
scalar
p19
(cnumpy
dtype
p20
(S'f8'
p21
I0
I1
tp22
Rp23
(I3
S'<'
p24
NNNI-1
I-1
I0
tp25
bS'\x00\x00\x00\x00\x00 \x8a@'
p26
tp27
Rp28
sS'excerised_stock_ratio'
p29
I0
sS'bonus'
p30
I600000
sS'total_stock_value'
p31
I585062
sS'from_poi_to_this_person'
p32
I38
sS'from_this_person_to_poi'
p33
I1
sS'restricted_stock'
p34
I585062
sS'salary'
p35
I365788
sS'total_payments'
p36
I1061827
sS'message_shared_fraction'
p37
g19
(g23
S']t\xd1E\x17]\xec?'
p38
tp39
Rp40
sS'exercised_stock_options'
p41
g5
sS'total_messages_with_poi'
p42
g19
(g23
S'\x00\x00\x00\x00\x00(\x87@'
p43
tp44
Rp45
ssS'BAXTER JOHN C'
p46
(dp47
g3
g5
sg4
I1295738
sg6
I11200
sg7
I00
sg8
I-1386055
sg9
g5
sg11
I1586055
sg12
g5
sg13
g5
sg14
g5
sg15
g5
sg16
I2660303
sg17
g5
sg18
g19
(g23
S'\x00\x00\x00\x00\x00\x00\x00\x00'
p48
tp49
Rp50
sg29
F0.6288601858299968
sg30
I1200000
sg31
I10623258
sg32
g5
sg33
g5
sg34
I3942714
sg35
I267102
sg36
I5634343
sg37
I0
sg41
I6680544
sg42
g19
(g23
S'\x00\x00\x00\x00\x00\x00\x00\x00'
p51
tp52
Rp53
ssS'ELLIOTT STEVEN'
p54
(dp55
g3
g5
sg4
g5
sg6
I78552
sg7
I00
sg8
I-400729
sg9
S'steven.elliott@enron.com'
p56
sg11
g5
sg12
g5
sg13
g5
sg14
g5
sg15
g5
sg16
I12961
sg17
g5
sg18
g19
(g23
S'\x00\x00\x00\x00\x00\x00\x00\x00'
p57
tp58
Rp59
sg29
F0.7322260877246963
sg30
I350000
sg31
I6678735
sg32
g5
sg33
g5
sg34
I1788391
sg35
I170941
sg36
I211725
sg37
I0
sg41
I4890344
sg42
g19
(g23
S'\x00\x00\x00\x00\x00\x00\x00\x00'
p60
tp61
Rp62
ssS'CORDES WILLIAM R'
p63
(dp64
g3
I764
sg4
g5
sg6
g5
sg7
I00
sg8
g5
sg9
S'bill.cordes@enron.com'
p65
sg11
g5
sg12
g5
sg13
I58
sg14
g5
sg15
I12
sg16
g5
sg17
g5
sg18
g19
(g23
S'\x00\x00\x00\x00\x00@\x88@'
p66
tp67
Rp68
sg29
F0.6278746080900803
sg30
g5
sg31
I1038185
sg32
I10
sg33
I0
sg34
I386335
sg35
g5
sg36
g5
sg37
g19
(g23
S"\x96'\x91i\xd8n\xb6?"
p69
tp70
Rp71
sg41
I651850
sg42
g19
(g23
S'\x00\x00\x00\x00\x00\x00Q@'
p72
tp73
Rp74
ssS'HANNON KEVIN P'
p75
(dp76
g3
I1045
sg4
g5
sg6
I34039
sg7
I01
sg8
I-3117011
sg9
S'kevin.hannon@enron.com'
p77
sg11
I1617011
sg12
g5
sg13
I1035
sg14
g5
sg15
I32
sg16
I11350
sg17
g5
sg18
g19
(g23
S'\x00\x00\x00\x00\x00\xd4\x90@'
p78
tp79
Rp80
sg29
F0.8665224027607292
sg30
I1500000
sg31
I6391065
sg32
I32
sg33
I21
sg34
I853064
sg35
I243293
sg36
I288682
sg37
g19
(g23
S'\xef\xed\x9b\xb0\xd5)\xf0?'
p81
tp82
Rp83
sg41
I5538001
sg42
g19
(g23
S'\x00\x00\x00\x00\x00\x00\x91@'
p84
tp85
Rp86
ssS'MORDAUNT KRISTINA M'
p87
(dp88
g3
g5
sg4
g5
sg6
I35018
sg7
I00
sg8
g5
sg9
S'kristina.mordaunt@enron.com'
p89
sg11
g5
sg12
g5
sg13
g5
sg14
g5
sg15
g5
sg16
I1411
sg17
g5
sg18
g19
(g23
S'\x00\x00\x00\x00\x00\x00\x00\x00'
p90
tp91
Rp92
sg29
I0
sg30
I325000
sg31
I208510
sg32
g5
sg33
g5
sg34
I208510
sg35
I267093
sg36
I628522
sg37
I0
sg41
g5
sg42
g19
(g23
S'\x00\x00\x00\x00\x00\x00\x00\x00'
p93
tp94
Rp95
ssS'MEYER ROCKFORD G'
p96
(dp97
g3
I232
sg4
I1848227
sg6
g5
sg7
I00
sg8
g5
sg9
S'rockford.meyer@enron.com'
p98
sg11
g5
sg12
g5
sg13
I22
sg14
g5
sg15
I28
sg16
g5
sg17
g5
sg18
g19
(g23
S'\x00\x00\x00\x00\x00@p@'
p99
tp100
Rp101
sg29
F0.5162704668925684
sg30
g5
sg31
I955873
sg32
I0
sg33
I0
sg34
I462384
sg35
g5
sg36
I1848227
sg37
g19
(g23
S'\x96Z\xa9\x95Z\xa9\xb5?'
p102
tp103
Rp104
sg41
I493489
sg42
g19
(g23
S'\x00\x00\x00\x00\x00\x006@'
p105
tp106
Rp107
ssS'MCMAHON JEFFREY'
p108
(dp109
g3
I2355
sg4
g5
sg6
I137108
sg7
I00
sg8
g5
sg9
S'jeffrey.mcmahon@enron.com'
p110
sg11
I694862
sg12
g5
sg13
I2228
sg14
g5
sg15
I48
sg16
I297353
sg17
g5
sg18
g19
(g23
S'\x00\x00\x00\x00\x00\xc6\xa2@'
p111
tp112
Rp113
sg29
F0.6639508556067727
sg30
I2600000
sg31
I1662855
sg32
I58
sg33
I26
sg34
I558801
sg35
I370448
sg36
I4099771
sg37
g19
(g23
S'\xd0\x8aCB\xc6\xc9\xee?'
p114
tp115
Rp116
sg41
I1104054
sg42
g19
(g23
S'\x00\x00\x00\x00\x00\x10\xa2@'
p117
tp118
Rp119
ssS'HORTON STANLEY C'
p120
(dp121
g3
I2350
sg4
I3131860
sg6
g5
sg7
I00
sg8
g5
sg9
S'stanley.horton@enron.com'
p122
sg11
g5
sg12
g5
sg13
I1074
sg14
g5
sg15
I1073
sg16
g5
sg17
g5
sg18
g19
(g23
S'\x00\x00\x00\x00\x00\xbe\xaa@'
p123
tp124
Rp125
sg29
F0.7180407538025821
sg30
g5
sg31
I7256648
sg32
I44
sg33
I15
sg34
I2046079
sg35
g5
sg36
I3131860
sg37
g19
(g23
S'R\xa9\xd8\xb1\n/\xd5?'
p126
tp127
Rp128
sg41
I5210569
sg42
g19
(g23
S'\x00\x00\x00\x00\x00\xb4\x91@'
p129
tp130
Rp131
ssS'PIPER GREGORY F'
p132
(dp133
g3
I1238
sg4
I1130036
sg6
I43057
sg7
I00
sg8
I-33333
sg9
S'greg.piper@enron.com'
p134
sg11
g5
sg12
I-409554
sg13
I742
sg14
g5
sg15
I222
sg16
I778
sg17
g5
sg18
g19
(g23
S'\x00\x00\x00\x00\x00\xd0\x96@'
p135
tp136
Rp137
sg29
F1.0
sg30
I400000
sg31
I880290
sg32
I61
sg33
I48
sg34
I409554
sg35
I197091
sg36
I1737629
sg37
g19
(g23
S'o\xaa!\x10\xed\xa6\xe2?'
p138
tp139
Rp140
sg41
I880290
sg42
g19
(g23
S'\x00\x00\x00\x00\x00\x98\x8a@'
p141
tp142
Rp143
ssS'HUMPHREY GENE E'
p144
(dp145
g3
I128
sg4
I2964506
sg6
I4994
sg7
I00
sg8
g5
sg9
S'gene.humphrey@enron.com'
p146
sg11
g5
sg12
g5
sg13
I119
sg14
g5
sg15
I17
sg16
g5
sg17
g5
sg18
g19
(g23
S'\x00\x00\x00\x00\x00 b@'
p147
tp148
Rp149
sg29
F1.0
sg30
g5
sg31
I2282768
sg32
I10
sg33
I17
sg34
g5
sg35
I130724
sg36
I3100224
sg37
g19
(g23
S'\xf9\xc3\x01\x8f?\x1c\xf0?'
p150
tp151
Rp152
sg41
I2282768
sg42
g19
(g23
S'\x00\x00\x00\x00\x00@b@'
p153
tp154
Rp155
ssS'UMANOFF ADAM S'
p156
(dp157
g3
I111
sg4
g5
sg6
I53122
sg7
I00
sg8
g5
sg9
S'adam.umanoff@enron.com'
p158
sg11
g5
sg12
g5
sg13
I41
sg14
g5
sg15
I18
sg16
g5
sg17
g5
sg18
g19
(g23
S'\x00\x00\x00\x00\x00 `@'
p159
tp160
Rp161
sg29
I0
sg30
I788750
sg31
g5
sg32
I12
sg33
I0
sg34
g5
sg35
I288589
sg36
I1130461
sg37
g19
(g23
S'\x93\xb6\xa4-iK\xda?'
p162
tp163
Rp164
sg41
g5
sg42
g19
(g23
S'\x00\x00\x00\x00\x00\x80J@'
p165
tp166
Rp167
ssS'BLACHMAN JEREMY M'
p168
(dp169
g3
I2475
sg4
g5
sg6
I84208
sg7
I00
sg8
g5
sg9
S'jeremy.blachman@enron.com'
p170
sg11
I831809
sg12
g5
sg13
I2326
sg14
g5
sg15
I14
sg16
I272
sg17
g5
sg18
g19
(g23
S'\x00\x00\x00\x00\x00r\xa3@'
p171
tp172
Rp173
sg29
F0.8019173178925221
sg30
I850000
sg31
I954354
sg32
I25
sg33
I2
sg34
I189041
sg35
I248546
sg36
I2014835
sg37
g19
(g23
S'V\x01\x0b\xbdb@\xee?'
p174
tp175
Rp176
sg41
I765313
sg42
g19
(g23
S'\x00\x00\x00\x00\x00b\xa2@'
p177
tp178
Rp179
ssS'SUNDE MARTIN'
p180
(dp181
g3
I2647
sg4
g5
sg6
g5
sg7
I00
sg8
g5
sg9
S'marty.sunde@enron.com'
p182
sg11
I476451
sg12
g5
sg13
I2565
sg14
g5
sg15
I38
sg16
I111122
sg17
g5
sg18
g19
(g23
S'\x00\x00\x00\x00\x00\xfa\xa4@'
p183
tp184
Rp185
sg29
I0
sg30
I700000
sg31
I698920
sg32
I37
sg33
I13
sg34
I698920
sg35
I257486
sg36
I1545059
sg37
g19
(g23
S'M7l\xa5m*\xef?'
p186
tp187
Rp188
sg41
g5
sg42
g19
(g23
S'\x00\x00\x00\x00\x00n\xa4@'
p189
tp190
Rp191
ssS'GIBBS DANA R'
p192
(dp193
g3
I169
sg4
I504610
sg6
g5
sg7
I00
sg8
g5
sg9
S'dana.gibbs@enron.com'
p194
sg11
I461912
sg12
g5
sg13
I23
sg14
g5
sg15
I12
sg16
g5
sg17
g5
sg18
g19
(g23
S'\x00\x00\x00\x00\x00\xa0f@'
p195
tp196
Rp197
sg29
F1.0
sg30
g5
sg31
I2218275
sg32
I0
sg33
I0
sg34
g5
sg35
g5
sg36
I966522
sg37
g19
(g23
S'X\xfas\xb6\xe3C\xc0?'
p198
tp199
Rp200
sg41
I2218275
sg42
g19
(g23
S'\x00\x00\x00\x00\x00\x007@'
p201
tp202
Rp203
ssS'LOWRY CHARLES P'
p204
(dp205
g3
g5
sg4
g5
sg6
g5
sg7
I00
sg8
g5
sg9
g5
sg11
g5
sg12
I-153686
sg13
g5
sg14
g5
sg15
g5
sg16
g5
sg17
g5
sg18
g19
(g23
S'\x00\x00\x00\x00\x00\x00\x00\x00'
p206
tp207
Rp208
sg29
F1.0
sg30
g5
sg31
I372205
sg32
g5
sg33
g5
sg34
I153686
sg35
g5
sg36
g5
sg37
I0
sg41
I372205
sg42
g19
(g23
S'\x00\x00\x00\x00\x00\x00\x00\x00'
p209
tp210
Rp211
ssS'COLWELL WESLEY'
p212
(dp213
g3
I1758
sg4
I27610
sg6
I16514
sg7
I01
sg8
I-144062
sg9
S'wes.colwell@enron.com'
p214
sg11
g5
sg12
g5
sg13
I1132
sg14
g5
sg15
I40
sg16
I101740
sg17
g5
sg18
g19
(g23
S'\x00\x00\x00\x00\x00\x18\x9c@'
p215
tp216
Rp217
sg29
I0
sg30
I1200000
sg31
I698242
sg32
I240
sg33
I11
sg34
I698242
sg35
I288542
sg36
I1490344
sg37
g19
(g23
S'\xb8\xa9\xe4\x1f0\x9d\xe8?'
p218
tp219
Rp220
sg41
g5
sg42
g19
(g23
S'\x00\x00\x00\x00\x00\x9c\x95@'
p221
tp222
Rp223
ssS'MULLER MARK S'
p224
(dp225
g3
I136
sg4
I842924
sg6
g5
sg7
I00
sg8
I-719000
sg9
S's..muller@enron.com'
p226
sg11
I1725545
sg12
g5
sg13
I114
sg14
g5
sg15
I16
sg16
I947
sg17
g5
sg18
g19
(g23
S'\x00\x00\x00\x00\x00\x00c@'
p227
tp228
Rp229
sg29
F0.7455422176549636
sg30
I1100000
sg31
I1416848
sg32
I12
sg33
I0
sg34
I360528
sg35
I251654
sg36
I3202070
sg37
g19
(g23
S'l(\xaf\xa1\xbc\x86\xea?'
p230
tp231
Rp232
sg41
I1056320
sg42
g19
(g23
S'\x00\x00\x00\x00\x00\x80_@'
p233
tp234
Rp235
ssS'JACKSON CHARLENE R'
p236
(dp237
g3
I258
sg4
g5
sg6
I10181
sg7
I00
sg8
g5
sg9
S'charlene.jackson@enron.com'
p238
sg11
g5
sg12
g5
sg13
I117
sg14
g5
sg15
I56
sg16
I2435
sg17
g5
sg18
g19
(g23
S'\x00\x00\x00\x00\x00\xa0s@'
p239
tp240
Rp241
sg29
F0.25500079230021977
sg30
I250000
sg31
I725735
sg32
I25
sg33
I19
sg34
I540672
sg35
I288558
sg36
I551174
sg37
g19
(g23
S',\xe9\xe5O[h\xe0?'
p242
tp243
Rp244
sg41
I185063
sg42
g19
(g23
S'\x00\x00\x00\x00\x00 d@'
p245
tp246
Rp247
ssS'WESTFAHL RICHARD K'
p248
(dp249
g3
g5
sg4
g5
sg6
I51870
sg7
I00
sg8
I-10800
sg9
S'dick.westfahl@enron.com'
p250
sg11
I256191
sg12
g5
sg13
g5
sg14
g5
sg15
g5
sg16
I401130
sg17
g5
sg18
g19
(g23
S'\x00\x00\x00\x00\x00\x00\x00\x00'
p251
tp252
Rp253
sg29
I0
sg30
g5
sg31
I384930
sg32
g5
sg33
g5
sg34
I384930
sg35
I63744
sg36
I762135
sg37
I0
sg41
g5
sg42
g19
(g23
S'\x00\x00\x00\x00\x00\x00\x00\x00'
p254
tp255
Rp256
ssS'WALTERS GARETH W'
p257
(dp258
g3
g5
sg4
I53625
sg6
I33785
sg7
I00
sg8
g5
sg9
g5
sg11
g5
sg12
g5
sg13
g5
sg14
g5
sg15
g5
sg16
g5
sg17
g5
sg18
g19
(g23
S'\x00\x00\x00\x00\x00\x00\x00\x00'
p259
tp260
Rp261
sg29
F1.0
sg30
g5
sg31
I1030329
sg32
g5
sg33
g5
sg34
g5
sg35
g5
sg36
I87410
sg37
I0
sg41
I1030329
sg42
g19
(g23
S'\x00\x00\x00\x00\x00\x00\x00\x00'
p262
tp263
Rp264
ssS'WALLS JR ROBERT H'
p265
(dp266
g3
I671
sg4
g5
sg6
I50936
sg7
I00
sg8
g5
sg9
S'rob.walls@enron.com'
p267
sg11
I540751
sg12
g5
sg13
I215
sg14
g5
sg15
I146
sg16
I2
sg17
g5
sg18
g19
(g23
S'\x00\x00\x00\x00\x00\x88\x89@'
p268
tp269
Rp270
sg29
F0.7368276335790643
sg30
I850000
sg31
I5898997
sg32
I17
sg33
I0
sg34
I1552453
sg35
I357091
sg36
I1798780
sg37
g19
(g23
S'c\xd5\x07\x97~,\xd2?'
p271
tp272
Rp273
sg41
I4346544
sg42
g19
(g23
S'\x00\x00\x00\x00\x00\x00m@'
p274
tp275
Rp276
ssS'KITCHEN LOUISE'
p277
(dp278
g3
I8305
sg4
g5
sg6
I5774
sg7
I00
sg8
g5
sg9
S'louise.kitchen@enron.com'
p279
sg11
g5
sg12
g5
sg13
I3669
sg14
g5
sg15
I1728
sg16
I93925
sg17
g5
sg18
g19
(g23
S'\x00\x00\x00\x00\x80\x98\xc3@'
p280
tp281
Rp282
sg29
F0.14811849918577044
sg30
I3100000
sg31
I547143
sg32
I251
sg33
I194
sg34
I466101
sg35
I271442
sg36
I3471141
sg37
g19
(g23
S'\xbdT\xb7\x1f5>\xda?'
p283
tp284
Rp285
sg41
I81042
sg42
g19
(g23
S'\x00\x00\x00\x00\x00\x12\xb0@'
p286
tp287
Rp288
ssS'CHAN RONNIE'
p289
(dp290
g3
g5
sg4
g5
sg6
g5
sg7
I00
sg8
I-98784
sg9
g5
sg11
g5
sg12
I-32460
sg13
g5
sg14
g5
sg15
g5
sg16
g5
sg17
I98784
sg18
g19
(g23
S'\x00\x00\x00\x00\x00\x00\x00\x00'
p291
tp292
Rp293
sg29
I0
sg30
g5
sg31
g5
sg32
g5
sg33
g5
sg34
I32460
sg35
g5
sg36
g5
sg37
I0
sg41
g5
sg42
g19
(g23
S'\x00\x00\x00\x00\x00\x00\x00\x00'
p294
tp295
Rp296
ssS'BELFER ROBERT'
p297
(dp298
g3
g5
sg4
I-102500
sg6
g5
sg7
I00
sg8
g5
sg9
g5
sg11
g5
sg12
I44093
sg13
g5
sg14
g5
sg15
g5
sg16
g5
sg17
I3285
sg18
g19
(g23
S'\x00\x00\x00\x00\x00\x00\x00\x00'
p299
tp300
Rp301
sg29
F-0.07450162157258522
sg30
g5
sg31
I-44093
sg32
g5
sg33
g5
sg34
g5
sg35
g5
sg36
I102500
sg37
I0
sg41
I3285
sg42
g19
(g23
S'\x00\x00\x00\x00\x00\x00\x00\x00'
p302
tp303
Rp304
ssS'SHANKMAN JEFFREY A'
p305
(dp306
g3
I3221
sg4
g5
sg6
I178979
sg7
I00
sg8
g5
sg9
S'jeffrey.shankman@enron.com'
p307
sg11
I554422
sg12
g5
sg13
I1730
sg14
g5
sg15
I2681
sg16
I1191
sg17
g5
sg18
g19
(g23
S'\x00\x00\x00\x00\x00\x0e\xb7@'
p308
tp309
Rp310
sg29
F0.6958849633331483
sg30
I2000000
sg31
I2072035
sg32
I94
sg33
I83
sg34
I630137
sg35
I304110
sg36
I3038702
sg37
g19
(g23
S'\xa0\xe7^\xf6\xd8\xad\xd4?'
p311
tp312
Rp313
sg41
I1441898
sg42
g19
(g23
S'\x00\x00\x00\x00\x00\xcc\x9d@'
p314
tp315
Rp316
ssS'WODRASKA JOHN'
p317
(dp318
g3
g5
sg4
g5
sg6
g5
sg7
I00
sg8
g5
sg9
S'john.wodraska@enron.com'
p319
sg11
g5
sg12
g5
sg13
g5
sg14
g5
sg15
g5
sg16
I189583
sg17
g5
sg18
g19
(g23
S'\x00\x00\x00\x00\x00\x00\x00\x00'
p320
tp321
Rp322
sg29
I0
sg30
g5
sg31
g5
sg32
g5
sg33
g5
sg34
g5
sg35
g5
sg36
I189583
sg37
I0
sg41
g5
sg42
g19
(g23
S'\x00\x00\x00\x00\x00\x00\x00\x00'
p323
tp324
Rp325
ssS'BERGSIEKER RICHARD P'
p326
(dp327
g3
I383
sg4
g5
sg6
I59175
sg7
I00
sg8
I-485813
sg9
S'rick.bergsieker@enron.com'
p328
sg11
I180250
sg12
g5
sg13
I233
sg14
g5
sg15
I59
sg16
I427316
sg17
g5
sg18
g19
(g23
S'\x00\x00\x00\x00\x00\xa0{@'
p329
tp330
Rp331
sg29
I0
sg30
I250000
sg31
I659249
sg32
I4
sg33
I0
sg34
I659249
sg35
I187922
sg36
I618850
sg37
g19
(g23
S'\x01\x8b(\x01\x8b(\xe1?'
p332
tp333
Rp334
sg41
g5
sg42
g19
(g23
S'\x00\x00\x00\x00\x00\xa0m@'
p335
tp336
Rp337
ssS'URQUHART JOHN A'
p338
(dp339
g3
g5
sg4
g5
sg6
I228656
sg7
I00
sg8
I-36666
sg9
g5
sg11
g5
sg12
g5
sg13
g5
sg14
g5
sg15
g5
sg16
g5
sg17
I36666
sg18
g19
(g23
S'\x00\x00\x00\x00\x00\x00\x00\x00'
p340
tp341
Rp342
sg29
I0
sg30
g5
sg31
g5
sg32
g5
sg33
g5
sg34
g5
sg35
g5
sg36
I228656
sg37
I0
sg41
g5
sg42
g19
(g23
S'\x00\x00\x00\x00\x00\x00\x00\x00'
p343
tp344
Rp345
ssS'BIBI PHILIPPE A'
p346
(dp347
g3
I1607
sg4
g5
sg6
I38559
sg7
I00
sg8
g5
sg9
S'philippe.bibi@enron.com'
p348
sg11
I369721
sg12
g5
sg13
I1336
sg14
g5
sg15
I40
sg16
I425688
sg17
g5
sg18
g19
(g23
S'\x00\x00\x00\x00\x00\xbc\x99@'
p349
tp350
Rp351
sg29
F0.7949459165122768
sg30
I1000000
sg31
I1843816
sg32
I23
sg33
I8
sg34
I378082
sg35
I213625
sg36
I2047593
sg37
g19
(g23
S'\x0e+EmO\x8f\xea?'
p352
tp353
Rp354
sg41
I1465734
sg42
g19
(g23
S'\x00\x00\x00\x00\x00\\\x95@'
p355
tp356
Rp357
ssS'RIEKER PAULA H'
p358
(dp359
g3
I1328
sg4
I214678
sg6
I33271
sg7
I01
sg8
I-100000
sg9
S'paula.rieker@enron.com'
p360
sg11
g5
sg12
g5
sg13
I1258
sg14
g5
sg15
I82
sg16
I1950
sg17
g5
sg18
g19
(g23
S'\x00\x00\x00\x00\x00\x08\x96@'
p361
tp362
Rp363
sg29
F0.8521804566918219
sg30
I700000
sg31
I1918887
sg32
I35
sg33
I48
sg34
I283649
sg35
I249201
sg36
I1099100
sg37
g19
(g23
S'\xa0\x07\xabi\x1do\xee?'
p364
tp365
Rp366
sg41
I1635238
sg42
g19
(g23
S'\x00\x00\x00\x00\x00\xf4\x94@'
p367
tp368
Rp369
ssS'WHALEY DAVID A'
p370
(dp371
g3
g5
sg4
g5
sg6
g5
sg7
I00
sg8
g5
sg9
g5
sg11
g5
sg12
g5
sg13
g5
sg14
g5
sg15
g5
sg16
g5
sg17
g5
sg18
g19
(g23
S'\x00\x00\x00\x00\x00\x00\x00\x00'
p372
tp373
Rp374
sg29
F1.0
sg30
g5
sg31
I98718
sg32
g5
sg33
g5
sg34
g5
sg35
g5
sg36
g5
sg37
I0
sg41
I98718
sg42
g19
(g23
S'\x00\x00\x00\x00\x00\x00\x00\x00'
p375
tp376
Rp377
ssS'BECK SALLY W'
p378
(dp379
g3
I7315
sg4
g5
sg6
I37172
sg7
I00
sg8
g5
sg9
S'sally.beck@enron.com'
p380
sg11
g5
sg12
g5
sg13
I2639
sg14
g5
sg15
I4343
sg16
I566
sg17
g5
sg18
g19
(g23
S'\x00\x00\x00\x00\x00\xc5\xc6@'
p381
tp382
Rp383
sg29
I0
sg30
I700000
sg31
I126027
sg32
I144
sg33
I386
sg34
I126027
sg35
I231330
sg36
I969068
sg37
g19
(g23
S'My\xbe\xc3\xabe\xd1?'
p384
tp385
Rp386
sg41
g5
sg42
g19
(g23
S'\x00\x00\x00\x00\x00\xc2\xa8@'
p387
tp388
Rp389
ssS'HAUG DAVID L'
p390
(dp391
g3
I573
sg4
g5
sg6
I475
sg7
I00
sg8
g5
sg9
S'david.haug@enron.com'
p392
sg11
g5
sg12
g5
sg13
I471
sg14
g5
sg15
I19
sg16
g5
sg17
g5
sg18
g19
(g23
S'\x00\x00\x00\x00\x00\x80\x82@'
p393
tp394
Rp395
sg29
I0
sg30
g5
sg31
I2217299
sg32
I4
sg33
I7
sg34
I2217299
sg35
g5
sg36
I475
sg37
g19
(g23
S'\xdd`\x8a|\xd6\r\xea?'
p396
tp397
Rp398
sg41
g5
sg42
g19
(g23
S'\x00\x00\x00\x00\x00 ~@'
p399
tp400
Rp401
ssS'ECHOLS JOHN B'
p402
(dp403
g3
g5
sg4
g5
sg6
I21530
sg7
I00
sg8
g5
sg9
S'john.echols@enron.com'
p404
sg11
I2234774
sg12
g5
sg13
g5
sg14
g5
sg15
g5
sg16
I53775
sg17
g5
sg18
g19
(g23
S'\x00\x00\x00\x00\x00\x00\x00\x00'
p405
tp406
Rp407
sg29
F0.5961081966140735
sg30
I200000
sg31
I1008941
sg32
g5
sg33
g5
sg34
I407503
sg35
I182245
sg36
I2692324
sg37
I0
sg41
I601438
sg42
g19
(g23
S'\x00\x00\x00\x00\x00\x00\x00\x00'
p408
tp409
Rp410
ssS'MENDELSOHN JOHN'
p411
(dp412
g3
g5
sg4
g5
sg6
I148
sg7
I00
sg8
I-103750
sg9
g5
sg11
g5
sg12
g5
sg13
g5
sg14
g5
sg15
g5
sg16
g5
sg17
I103750
sg18
g19
(g23
S'\x00\x00\x00\x00\x00\x00\x00\x00'
p413
tp414
Rp415
sg29
I0
sg30
g5
sg31
g5
sg32
g5
sg33
g5
sg34
g5
sg35
g5
sg36
I148
sg37
I0
sg41
g5
sg42
g19
(g23
S'\x00\x00\x00\x00\x00\x00\x00\x00'
p416
tp417
Rp418
ssS'HICKERSON GARY J'
p419
(dp420
g3
I1320
sg4
g5
sg6
I98849
sg7
I00
sg8
g5
sg9
S'gary.hickerson@enron.com'
p421
sg11
I69223
sg12
g5
sg13
I900
sg14
g5
sg15
I27
sg16
I1936
sg17
g5
sg18
g19
(g23
S'\x00\x00\x00\x00\x00\x0c\x95@'
p422
tp423
Rp424
sg29
I0
sg30
I1700000
sg31
I441096
sg32
I40
sg33
I1
sg34
I441096
sg35
I211788
sg36
I2081796
sg37
g19
(g23
S'e\xa4uG\xd8Z\xe6?'
p425
tp426
Rp427
sg41
g5
sg42
g19
(g23
S'\x00\x00\x00\x00\x00h\x8d@'
p428
tp429
Rp430
ssS'CLINE KENNETH W'
p431
(dp432
g3
g5
sg4
g5
sg6
g5
sg7
I00
sg8
g5
sg9
g5
sg11
g5
sg12
I-472568
sg13
g5
sg14
g5
sg15
g5
sg16
g5
sg17
g5
sg18
g19
(g23
S'\x00\x00\x00\x00\x00\x00\x00\x00'
p433
tp434
Rp435
sg29
I0
sg30
g5
sg31
I189518
sg32
g5
sg33
g5
sg34
I662086
sg35
g5
sg36
g5
sg37
I0
sg41
g5
sg42
g19
(g23
S'\x00\x00\x00\x00\x00\x00\x00\x00'
p436
tp437
Rp438
ssS'LEWIS RICHARD'
p439
(dp440
g3
I952
sg4
g5
sg6
g5
sg7
I00
sg8
g5
sg9
S'richard.lewis@enron.com'
p441
sg11
g5
sg12
g5
sg13
I739
sg14
g5
sg15
I26
sg16
g5
sg17
g5
sg18
g19
(g23
S'\x00\x00\x00\x00\x00\x90\x8e@'
p442
tp443
Rp444
sg29
F1.0
sg30
g5
sg31
I850477
sg32
I10
sg33
I0
sg34
g5
sg35
g5
sg36
g5
sg37
g19
(g23
S';\xb7R\x12\xd5\x81\xe8?'
p445
tp446
Rp447
sg41
I850477
sg42
g19
(g23
S'\x00\x00\x00\x00\x00h\x87@'
p448
tp449
Rp450
ssS'HAYES ROBERT E'
p451
(dp452
g3
I504
sg4
I7961
sg6
g5
sg7
I00
sg8
g5
sg9
S'robert.hayes@enron.com'
p453
sg11
g5
sg12
g5
sg13
I50
sg14
g5
sg15
I12
sg16
g5
sg17
g5
sg18
g19
(g23
S'\x00\x00\x00\x00\x00 \x80@'
p454
tp455
Rp456
sg29
I0
sg30
g5
sg31
I151418
sg32
I16
sg33
I0
sg34
I151418
sg35
g5
sg36
I7961
sg37
g19
(g23
S'\x18\xf4\x05}A_\xc0?'
p457
tp458
Rp459
sg41
g5
sg42
g19
(g23
S'\x00\x00\x00\x00\x00\x80P@'
p460
tp461
Rp462
ssS'MCCARTY DANNY J'
p463
(dp464
g3
I1433
sg4
g5
sg6
g5
sg7
I00
sg8
g5
sg9
S'danny.mccarty@enron.com'
p465
sg11
g5
sg12
g5
sg13
I508
sg14
g5
sg15
I215
sg16
g5
sg17
g5
sg18
g19
(g23
S'\x00\x00\x00\x00\x00\xc0\x99@'
p466
tp467
Rp468
sg29
F0.8754089633971995
sg30
g5
sg31
I758931
sg32
I25
sg33
I2
sg34
I94556
sg35
g5
sg36
g5
sg37
g19
(g23
S'\x9a\xee`\xbf\xd5\xc6\xd4?'
p469
tp470
Rp471
sg41
I664375
sg42
g19
(g23
S'\x00\x00\x00\x00\x00\xb8\x80@'
p472
tp473
Rp474
ssS'KOPPER MICHAEL J'
p475
(dp476
g3
g5
sg4
g5
sg6
I118134
sg7
I01
sg8
g5
sg9
S'michael.kopper@enron.com'
p477
sg11
I602671
sg12
g5
sg13
g5
sg14
g5
sg15
g5
sg16
I907502
sg17
g5
sg18
g19
(g23
S'\x00\x00\x00\x00\x00\x00\x00\x00'
p478
tp479
Rp480
sg29
I0
sg30
I800000
sg31
I985032
sg32
g5
sg33
g5
sg34
I985032
sg35
I224305
sg36
I2652612
sg37
I0
sg41
g5
sg42
g19
(g23
S'\x00\x00\x00\x00\x00\x00\x00\x00'
p481
tp482
Rp483
ssS'LEFF DANIEL P'
p484
(dp485
g3
I2822
sg4
g5
sg6
g5
sg7
I00
sg8
g5
sg9
S'dan.leff@enron.com'
p486
sg11
I1387399
sg12
g5
sg13
I2672
sg14
g5
sg15
I63
sg16
I3083
sg17
g5
sg18
g19
(g23
S'\x00\x00\x00\x00\x00\x8a\xa6@'
p487
tp488
Rp489
sg29
I0
sg30
I1000000
sg31
I360528
sg32
I67
sg33
I14
sg34
I360528
sg35
I273746
sg36
I2664228
sg37
g19
(g23
S'92B\x1e/\x89\xee?'
p490
tp491
Rp492
sg41
g5
sg42
g19
(g23
S'\x00\x00\x00\x00\x00\x82\xa5@'
p493
tp494
Rp495
ssS'LAVORATO JOHN J'
p496
(dp497
g3
I7259
sg4
g5
sg6
I49537
sg7
I00
sg8
g5
sg9
S'john.lavorato@enron.com'
p498
sg11
I2035380
sg12
g5
sg13
I3962
sg14
g5
sg15
I2585
sg16
I1552
sg17
g5
sg18
g19
(g23
S'\x00\x00\x00\x00\x00:\xc3@'
p499
tp500
Rp501
sg29
F0.80489241252034
sg30
I8000000
sg31
I5167144
sg32
I528
sg33
I411
sg34
I1008149
sg35
I339288
sg36
I10425757
sg37
g19
(g23
S'F\xff\xf2`\x0c\xdd\xdf?'
p502
tp503
Rp504
sg41
I4158995
sg42
g19
(g23
S'\x00\x00\x00\x00\x00%\xb3@'
p505
tp506
Rp507
ssS'BERBERIAN DAVID'
p508
(dp509
g3
g5
sg4
g5
sg6
I11892
sg7
I00
sg8
g5
sg9
S'david.berberian@enron.com'
p510
sg11
g5
sg12
g5
sg13
g5
sg14
g5
sg15
g5
sg16
g5
sg17
g5
sg18
g19
(g23
S'\x00\x00\x00\x00\x00\x00\x00\x00'
p511
tp512
Rp513
sg29
F0.6514218708895034
sg30
g5
sg31
I2493616
sg32
g5
sg33
g5
sg34
I869220
sg35
I216582
sg36
I228474
sg37
I0
sg41
I1624396
sg42
g19
(g23
S'\x00\x00\x00\x00\x00\x00\x00\x00'
p514
tp515
Rp516
ssS'DETMERING TIMOTHY J'
p517
(dp518
g3
g5
sg4
I875307
sg6
I52255
sg7
I00
sg8
I-775241
sg9
S'timothy.detmering@enron.com'
p519
sg11
I415657
sg12
I-315068
sg13
g5
sg14
g5
sg15
g5
sg16
I1105
sg17
g5
sg18
g19
(g23
S'\x00\x00\x00\x00\x00\x00\x00\x00'
p520
tp521
Rp522
sg29
F1.0
sg30
I425000
sg31
I2027865
sg32
g5
sg33
g5
sg34
I315068
sg35
I210500
sg36
I1204583
sg37
I0
sg41
I2027865
sg42
g19
(g23
S'\x00\x00\x00\x00\x00\x00\x00\x00'
p523
tp524
Rp525
ssS'WAKEHAM JOHN'
p526
(dp527
g3
g5
sg4
g5
sg6
I103773
sg7
I00
sg8
g5
sg9
g5
sg11
g5
sg12
g5
sg13
g5
sg14
g5
sg15
g5
sg16
g5
sg17
I109298
sg18
g19
(g23
S'\x00\x00\x00\x00\x00\x00\x00\x00'
p528
tp529
Rp530
sg29
I0
sg30
g5
sg31
g5
sg32
g5
sg33
g5
sg34
g5
sg35
g5
sg36
I213071
sg37
I0
sg41
g5
sg42
g19
(g23
S'\x00\x00\x00\x00\x00\x00\x00\x00'
p531
tp532
Rp533
ssS'POWERS WILLIAM'
p534
(dp535
g3
I653
sg4
g5
sg6
g5
sg7
I00
sg8
I-17500
sg9
S'ken.powers@enron.com'
p536
sg11
g5
sg12
g5
sg13
I12
sg14
g5
sg15
I26
sg16
g5
sg17
I17500
sg18
g19
(g23
S'\x00\x00\x00\x00\x008\x85@'
p537
tp538
Rp539
sg29
I0
sg30
g5
sg31
g5
sg32
I0
sg33
I0
sg34
g5
sg35
g5
sg36
g5
sg37
g19
(g23
S'\x12\xb0\x0b7\xe2\x18\x92?'
p540
tp541
Rp542
sg41
g5
sg42
g19
(g23
S'\x00\x00\x00\x00\x00\x00(@'
p543
tp544
Rp545
ssS'GOLD JOSEPH'
p546
(dp547
g3
g5
sg4
g5
sg6
g5
sg7
I00
sg8
g5
sg9
S'joe.gold@enron.com'
p548
sg11
I304805
sg12
g5
sg13
g5
sg14
g5
sg15
g5
sg16
I819288
sg17
g5
sg18
g19
(g23
S'\x00\x00\x00\x00\x00\x00\x00\x00'
p549
tp550
Rp551
sg29
F0.4973900737342627
sg30
I750000
sg31
I877611
sg32
g5
sg33
g5
sg34
I441096
sg35
I272880
sg36
I2146973
sg37
I0
sg41
I436515
sg42
g19
(g23
S'\x00\x00\x00\x00\x00\x00\x00\x00'
p552
tp553
Rp554
ssS'BANNANTINE JAMES M'
p555
(dp556
g3
I566
sg4
g5
sg6
I56301
sg7
I00
sg8
I-5104
sg9
S'james.bannantine@enron.com'
p557
sg11
g5
sg12
I-560222
sg13
I465
sg14
g5
sg15
I29
sg16
I864523
sg17
g5
sg18
g19
(g23
S'\x00\x00\x00\x00\x00\x98\x82@'
p558
tp559
Rp560
sg29
F0.7716538631639595
sg30
g5
sg31
I5243487
sg32
I39
sg33
I0
sg34
I1757552
sg35
I477
sg36
I916197
sg37
g19
(g23
S'\x1b\x1b\x1b\x1b\x1b\x1b\xeb?'
p561
tp562
Rp563
sg41
I4046157
sg42
g19
(g23
S'\x00\x00\x00\x00\x00\x80\x7f@'
p564
tp565
Rp566
ssS'DUNCAN JOHN H'
p567
(dp568
g3
g5
sg4
g5
sg6
g5
sg7
I00
sg8
I-25000
sg9
g5
sg11
g5
sg12
g5
sg13
g5
sg14
g5
sg15
g5
sg16
g5
sg17
I102492
sg18
g19
(g23
S'\x00\x00\x00\x00\x00\x00\x00\x00'
p569
tp570
Rp571
sg29
F1.0
sg30
g5
sg31
I371750
sg32
g5
sg33
g5
sg34
g5
sg35
g5
sg36
I77492
sg37
I0
sg41
I371750
sg42
g19
(g23
S'\x00\x00\x00\x00\x00\x00\x00\x00'
p572
tp573
Rp574
ssS'SHAPIRO RICHARD S'
p575
(dp576
g3
I15149
sg4
g5
sg6
I137767
sg7
I00
sg8
g5
sg9
S'richard.shapiro@enron.com'
p577
sg11
g5
sg12
g5
sg13
I4527
sg14
g5
sg15
I1215
sg16
I705
sg17
g5
sg18
g19
(g23
S'\x00\x00\x00\x00\x00\xf6\xcf@'
p578
tp579
Rp580
sg29
F0.6158423345062467
sg30
I650000
sg31
I987001
sg32
I74
sg33
I65
sg34
I379164
sg35
I269076
sg36
I1057548
sg37
g19
(g23
S'\xae\x918\xe8\xb3?\xd2?'
p581
tp582
Rp583
sg41
I607837
sg42
g19
(g23
S'\x00\x00\x00\x00\x00:\xb2@'
p584
tp585
Rp586
ssS'SHERRIFF JOHN R'
p587
(dp588
g3
I3187
sg4
g5
sg6
g5
sg7
I00
sg8
g5
sg9
S'john.sherriff@enron.com'
p589
sg11
I554422
sg12
g5
sg13
I2103
sg14
g5
sg15
I92
sg16
I1852186
sg17
g5
sg18
g19
(g23
S'\x00\x00\x00\x00\x00\x9e\xa9@'
p590
tp591
Rp592
sg29
F0.5866310512492562
sg30
I1500000
sg31
I3128982
sg32
I28
sg33
I23
sg34
I1293424
sg35
I428780
sg36
I4335388
sg37
g19
(g23
S'?\xbd\xf8\x12c\x05\xe5?'
p593
tp594
Rp595
sg41
I1835558
sg42
g19
(g23
S'\x00\x00\x00\x00\x00\xd4\xa0@'
p596
tp597
Rp598
ssS'SHELBY REX'
p599
(dp600
g3
I225
sg4
g5
sg6
I22884
sg7
I01
sg8
I-4167
sg9
S'rex.shelby@enron.com'
p601
sg11
g5
sg12
g5
sg13
I91
sg14
g5
sg15
I39
sg16
I1573324
sg17
g5
sg18
g19
(g23
S'\x00\x00\x00\x00\x00\x80p@'
p602
tp603
Rp604
sg29
F0.6514218708895034
sg30
I200000
sg31
I2493616
sg32
I13
sg33
I14
sg34
I869220
sg35
I211844
sg36
I2003885
sg37
g19
(g23
S'\x9bl\xb2\xc9&\x9b\xdc?'
p605
tp606
Rp607
sg41
I1624396
sg42
g19
(g23
S'\x00\x00\x00\x00\x00\x80]@'
p608
tp609
Rp610
ssS'LEMAISTRE CHARLES'
p611
(dp612
g3
g5
sg4
g5
sg6
g5
sg7
I00
sg8
I-25000
sg9
g5
sg11
g5
sg12
g5
sg13
g5
sg14
g5
sg15
g5
sg16
g5
sg17
I112492
sg18
g19
(g23
S'\x00\x00\x00\x00\x00\x00\x00\x00'
p613
tp614
Rp615
sg29
F1.0
sg30
g5
sg31
I412878
sg32
g5
sg33
g5
sg34
g5
sg35
g5
sg36
I87492
sg37
I0
sg41
I412878
sg42
g19
(g23
S'\x00\x00\x00\x00\x00\x00\x00\x00'
p616
tp617
Rp618
ssS'DEFFNER JOSEPH M'
p619
(dp620
g3
I714
sg4
g5
sg6
I41626
sg7
I00
sg8
g5
sg9
S'joseph.deffner@enron.com'
p621
sg11
I335349
sg12
g5
sg13
I552
sg14
g5
sg15
I74
sg16
I25553
sg17
g5
sg18
g19
(g23
S'\x00\x00\x00\x00\x00\xa0\x88@'
p622
tp623
Rp624
sg29
F0.10915074963413332
sg30
I600000
sg31
I159211
sg32
I115
sg33
I4
sg34
I141833
sg35
I206121
sg36
I1208649
sg37
g19
(g23
S'i\xe3\x1d\xd5\xac?\xeb?'
p625
tp626
Rp627
sg41
I17378
sg42
g19
(g23
S'\x00\x00\x00\x00\x00\xf8\x84@'
p628
tp629
Rp630
ssS'KISHKILL JOSEPH G'
p631
(dp632
g3
g5
sg4
g5
sg6
I116335
sg7
I00
sg8
I-51042
sg9
S'joe.kishkill@enron.com'
p633
sg11
g5
sg12
g5
sg13
g5
sg14
g5
sg15
g5
sg16
I465357
sg17
g5
sg18
g19
(g23
S'\x00\x00\x00\x00\x00\x00\x00\x00'
p634
tp635
Rp636
sg29
I0
sg30
g5
sg31
I1034346
sg32
g5
sg33
g5
sg34
I1034346
sg35
I174246
sg36
I704896
sg37
I0
sg41
g5
sg42
g19
(g23
S'\x00\x00\x00\x00\x00\x00\x00\x00'
p637
tp638
Rp639
ssS'WHALLEY LAWRENCE G'
p640
(dp641
g3
I6019
sg4
g5
sg6
I57838
sg7
I00
sg8
g5
sg9
S'greg.whalley@enron.com'
p642
sg11
I808346
sg12
g5
sg13
I3920
sg14
g5
sg15
I556
sg16
I301026
sg17
g5
sg18
g19
(g23
S'\x00\x00\x00\x00\x00\xaf\xb9@'
p643
tp644
Rp645
sg29
F0.5400371796194098
sg30
I3000000
sg31
I6079137
sg32
I186
sg33
I24
sg34
I2796177
sg35
I510364
sg36
I4677574
sg37
g19
(g23
S'O\x03\xc5\x84\xb2\x19\xe4?'
p646
tp647
Rp648
sg41
I3282960
sg42
g19
(g23
S'\x00\x00\x00\x00\x00"\xb0@'
p649
tp650
Rp651
ssS'MCCONNELL MICHAEL S'
p652
(dp653
g3
I3329
sg4
g5
sg6
I81364
sg7
I00
sg8
g5
sg9
S'mike.mcconnell@enron.com'
p654
sg11
I554422
sg12
g5
sg13
I2189
sg14
g5
sg15
I2742
sg16
I540
sg17
g5
sg18
g19
(g23
S'\x00\x00\x00\x00\x00\xb7\xb7@'
p655
tp656
Rp657
sg29
F0.5233356947246603
sg30
I1100000
sg31
I3101279
sg32
I92
sg33
I194
sg34
I1478269
sg35
I365038
sg36
I2101364
sg37
g19
(g23
S'\xec4\xafc\\\x17\xda?'
p658
tp659
Rp660
sg41
I1623010
sg42
g19
(g23
S'\x00\x00\x00\x00\x00V\xa3@'
p661
tp662
Rp663
ssS'PIRO JIM'
p664
(dp665
g3
I58
sg4
g5
sg6
g5
sg7
I00
sg8
g5
sg9
S'jim.piro@enron.com'
p666
sg11
g5
sg12
g5
sg13
I3
sg14
g5
sg15
I16
sg16
g5
sg17
g5
sg18
g19
(g23
S'\x00\x00\x00\x00\x00\x80R@'
p667
tp668
Rp669
sg29
I0
sg30
g5
sg31
I47304
sg32
I0
sg33
I1
sg34
I47304
sg35
g5
sg36
g5
sg37
g19
(g23
S'\xd0\xba\xc1\x14\xf9\xac\xab?'
p670
tp671
Rp672
sg41
g5
sg42
g19
(g23
S'\x00\x00\x00\x00\x00\x00\x10@'
p673
tp674
Rp675
ssS'DELAINEY DAVID W'
p676
(dp677
g3
I3093
sg4
g5
sg6
I86174
sg7
I01
sg8
g5
sg9
S'david.delainey@enron.com'
p678
sg11
I1294981
sg12
g5
sg13
I2097
sg14
g5
sg15
I3069
sg16
I1661
sg17
g5
sg18
g19
(g23
S'\x00\x00\x00\x00\x00\x12\xb8@'
p679
tp680
Rp681
sg29
F0.6339091172441614
sg30
I3000000
sg31
I3614261
sg32
I66
sg33
I609
sg34
I1323148
sg35
I365163
sg36
I4747979
sg37
g19
(g23
S'\x0b\x9c\xda1h\xca\xdc?'
p682
tp683
Rp684
sg41
I2291113
sg42
g19
(g23
S'\x00\x00\x00\x00\x00\xa8\xa5@'
p685
tp686
Rp687
ssS'SULLIVAN-SHAKLOVITZ COLLEEN'
p688
(dp689
g3
g5
sg4
I181993
sg6
g5
sg7
I00
sg8
g5
sg9
g5
sg11
I554422
sg12
g5
sg13
g5
sg14
g5
sg15
g5
sg16
I162
sg17
g5
sg18
g19
(g23
S'\x00\x00\x00\x00\x00\x00\x00\x00'
p690
tp691
Rp692
sg29
F1.0
sg30
I100000
sg31
I1362375
sg32
g5
sg33
g5
sg34
g5
sg35
I162779
sg36
I999356
sg37
I0
sg41
I1362375
sg42
g19
(g23
S'\x00\x00\x00\x00\x00\x00\x00\x00'
p693
tp694
Rp695
ssS'WROBEL BRUCE'
p696
(dp697
g3
g5
sg4
g5
sg6
g5
sg7
I00
sg8
g5
sg9
g5
sg11
g5
sg12
g5
sg13
g5
sg14
g5
sg15
g5
sg16
g5
sg17
g5
sg18
g19
(g23
S'\x00\x00\x00\x00\x00\x00\x00\x00'
p698
tp699
Rp700
sg29
F1.0
sg30
g5
sg31
I139130
sg32
g5
sg33
g5
sg34
g5
sg35
g5
sg36
g5
sg37
I0
sg41
I139130
sg42
g19
(g23
S'\x00\x00\x00\x00\x00\x00\x00\x00'
p701
tp702
Rp703
ssS'LINDHOLM TOD A'
p704
(dp705
g3
g5
sg4
I204075
sg6
I57727
sg7
I00
sg8
g5
sg9
S'tod.lindholm@enron.com'
p706
sg11
I175000
sg12
g5
sg13
g5
sg14
g5
sg15
g5
sg16
I2630
sg17
g5
sg18
g19
(g23
S'\x00\x00\x00\x00\x00\x00\x00\x00'
p707
tp708
Rp709
sg29
F0.8319804008083003
sg30
I200000
sg31
I3064208
sg32
g5
sg33
g5
sg34
I514847
sg35
I236457
sg36
I875889
sg37
I0
sg41
I2549361
sg42
g19
(g23
S'\x00\x00\x00\x00\x00\x00\x00\x00'
p710
tp711
Rp712
ssS'MEYER JEROME J'
p713
(dp714
g3
g5
sg4
g5
sg6
I2151
sg7
I00
sg8
I-38346
sg9
g5
sg11
g5
sg12
g5
sg13
g5
sg14
g5
sg15
g5
sg16
g5
sg17
I38346
sg18
g19
(g23
S'\x00\x00\x00\x00\x00\x00\x00\x00'
p715
tp716
Rp717
sg29
I0
sg30
g5
sg31
g5
sg32
g5
sg33
g5
sg34
g5
sg35
g5
sg36
I2151
sg37
I0
sg41
g5
sg42
g19
(g23
S'\x00\x00\x00\x00\x00\x00\x00\x00'
p718
tp719
Rp720
ssS'LAY KENNETH L'
p721
(dp722
g3
I4273
sg4
I202911
sg6
I99832
sg7
I01
sg8
I-300000
sg9
S'kenneth.lay@enron.com'
p723
sg11
I3600000
sg12
g5
sg13
I2411
sg14
I81525000
sg15
I36
sg16
I10359729
sg17
g5
sg18
g19
(g23
S'\x00\x00\x00\x00\x00\xd5\xb0@'
p724
tp725
Rp726
sg29
F0.6994161972212709
sg30
I7000000
sg31
I49110078
sg32
I123
sg33
I16
sg34
I14761694
sg35
I1072321
sg36
I103559793
sg37
g19
(g23
S'\xaa\x84\xabU\xe6\xef\xe2?'
p727
tp728
Rp729
sg41
I34348384
sg42
g19
(g23
S'\x00\x00\x00\x00\x00\xec\xa3@'
p730
tp731
Rp732
ssS'BUTTS ROBERT H'
p733
(dp734
g3
g5
sg4
g5
sg6
I9410
sg7
I00
sg8
I-75000
sg9
S'bob.butts@enron.com'
p735
sg11
I175000
sg12
g5
sg13
g5
sg14
g5
sg15
g5
sg16
I150656
sg17
g5
sg18
g19
(g23
S'\x00\x00\x00\x00\x00\x00\x00\x00'
p736
tp737
Rp738
sg29
I0
sg30
I750000
sg31
I417619
sg32
g5
sg33
g5
sg34
I417619
sg35
I261516
sg36
I1271582
sg37
I0
sg41
g5
sg42
g19
(g23
S'\x00\x00\x00\x00\x00\x00\x00\x00'
p739
tp740
Rp741
ssS'OLSON CINDY K'
p742
(dp743
g3
I1184
sg4
I77716
sg6
I63791
sg7
I00
sg8
g5
sg9
S'cindy.olson@enron.com'
p744
sg11
I100000
sg12
g5
sg13
I856
sg14
g5
sg15
I52
sg16
I972
sg17
g5
sg18
g19
(g23
S'\x00\x00\x00\x00\x00P\x93@'
p745
tp746
Rp747
sg29
F0.6279949500587511
sg30
I750000
sg31
I2606763
sg32
I20
sg33
I15
sg34
I969729
sg35
I329078
sg36
I1321557
sg37
g19
(g23
S'\x14H%\xe7e\x11\xe7?'
p748
tp749
Rp750
sg41
I1637034
sg42
g19
(g23
S'\x00\x00\x00\x00\x00\xd8\x8b@'
p751
tp752
Rp753
ssS'MCDONALD REBECCA'
p754
(dp755
g3
I894
sg4
g5
sg6
g5
sg7
I00
sg8
g5
sg9
S'rebecca.mcdonald@enron.com'
p756
sg11
g5
sg12
g5
sg13
I720
sg14
g5
sg15
I13
sg16
g5
sg17
g5
sg18
g19
(g23
S'\x00\x00\x00\x00\x00X\x8c@'
p757
tp758
Rp759
sg29
F0.4477451953036776
sg30
g5
sg31
I1691366
sg32
I54
sg33
I1
sg34
I934065
sg35
g5
sg36
g5
sg37
g19
(g23
S'l\xa3\xd7\x8c\xc7W\xeb?'
p760
tp761
Rp762
sg41
I757301
sg42
g19
(g23
S'\x00\x00\x00\x00\x008\x88@'
p763
tp764
Rp765
ssS'CUMBERLAND MICHAEL S'
p766
(dp767
g3
g5
sg4
g5
sg6
I22344
sg7
I00
sg8
g5
sg9
g5
sg11
I275000
sg12
g5
sg13
g5
sg14
g5
sg15
g5
sg16
I713
sg17
g5
sg18
g19
(g23
S'\x00\x00\x00\x00\x00\x00\x00\x00'
p768
tp769
Rp770
sg29
I0
sg30
I325000
sg31
I207940
sg32
g5
sg33
g5
sg34
I207940
sg35
I184899
sg36
I807956
sg37
I0
sg41
g5
sg42
g19
(g23
S'\x00\x00\x00\x00\x00\x00\x00\x00'
p771
tp772
Rp773
ssS'GAHN ROBERT S'
p774
(dp775
g3
g5
sg4
I73122
sg6
I50080
sg7
I00
sg8
I-1042
sg9
g5
sg11
g5
sg12
g5
sg13
g5
sg14
g5
sg15
g5
sg16
I76547
sg17
g5
sg18
g19
(g23
S'\x00\x00\x00\x00\x00\x00\x00\x00'
p776
tp777
Rp778
sg29
F0.2612528914932817
sg30
I509870
sg31
I318607
sg32
g5
sg33
g5
sg34
I235370
sg35
I192008
sg36
I900585
sg37
I0
sg41
I83237
sg42
g19
(g23
S'\x00\x00\x00\x00\x00\x00\x00\x00'
p779
tp780
Rp781
ssS'MCCLELLAN GEORGE'
p782
(dp783
g3
I1744
sg4
g5
sg6
I228763
sg7
I00
sg8
I-125000
sg9
S'george.mcclellan@enron.com'
p784
sg11
g5
sg12
g5
sg13
I1469
sg14
g5
sg15
I49
sg16
I51587
sg17
g5
sg18
g19
(g23
S'\x00\x00\x00\x00\x00\x04\x9c@'
p785
tp786
Rp787
sg29
F0.534640627686971
sg30
I900000
sg31
I947861
sg32
I52
sg33
I0
sg34
I441096
sg35
I263413
sg36
I1318763
sg37
g19
(g23
S'8w\xbd\xd1C%\xeb?'
p788
tp789
Rp790
sg41
I506765
sg42
g19
(g23
S'\x00\x00\x00\x00\x00\xc4\x97@'
p791
tp792
Rp793
ssS'HERMANN ROBERT J'
p794
(dp795
g3
g5
sg4
g5
sg6
I48357
sg7
I00
sg8
I-280000
sg9
S'robert.hermann@enron.com'
p796
sg11
I150000
sg12
g5
sg13
g5
sg14
g5
sg15
g5
sg16
I416441
sg17
g5
sg18
g19
(g23
S'\x00\x00\x00\x00\x00\x00\x00\x00'
p797
tp798
Rp799
sg29
F0.2806331682960852
sg30
I700000
sg31
I668132
sg32
g5
sg33
g5
sg34
I480632
sg35
I262663
sg36
I1297461
sg37
I0
sg41
I187500
sg42
g19
(g23
S'\x00\x00\x00\x00\x00\x00\x00\x00'
p800
tp801
Rp802
ssS'SCRIMSHAW MATTHEW'
p803
(dp804
g3
g5
sg4
g5
sg6
g5
sg7
I00
sg8
g5
sg9
S'matthew.scrimshaw@enron.com'
p805
sg11
g5
sg12
g5
sg13
g5
sg14
g5
sg15
g5
sg16
g5
sg17
g5
sg18
g19
(g23
S'\x00\x00\x00\x00\x00\x00\x00\x00'
p806
tp807
Rp808
sg29
F1.0
sg30
g5
sg31
I759557
sg32
g5
sg33
g5
sg34
g5
sg35
g5
sg36
g5
sg37
I0
sg41
I759557
sg42
g19
(g23
S'\x00\x00\x00\x00\x00\x00\x00\x00'
p809
tp810
Rp811
ssS'GATHMANN WILLIAM D'
p812
(dp813
g3
g5
sg4
g5
sg6
g5
sg7
I00
sg8
g5
sg9
g5
sg11
g5
sg12
I-72419
sg13
g5
sg14
g5
sg15
g5
sg16
g5
sg17
g5
sg18
g19
(g23
S'\x00\x00\x00\x00\x00\x00\x00\x00'
p814
tp815
Rp816
sg29
F0.9015123164864087
sg30
g5
sg31
I1945360
sg32
g5
sg33
g5
sg34
I264013
sg35
g5
sg36
g5
sg37
I0
sg41
I1753766
sg42
g19
(g23
S'\x00\x00\x00\x00\x00\x00\x00\x00'
p817
tp818
Rp819
ssS'HAEDICKE MARK E'
p820
(dp821
g3
I4009
sg4
I2157527
sg6
I76169
sg7
I00
sg8
I-934484
sg9
S'mark.haedicke@enron.com'
p822
sg11
I983346
sg12
I-329825
sg13
I1847
sg14
g5
sg15
I1941
sg16
I52382
sg17
g5
sg18
g19
(g23
S'\x00\x00\x00\x00\x00>\xb7@'
p823
tp824
Rp825
sg29
F0.7580059121348186
sg30
I1150000
sg31
I803094
sg32
I180
sg33
I61
sg34
I524169
sg35
I374125
sg36
I3859065
sg37
g19
(g23
S'\xe3\xf1\xdb|\x8bu\xd6?'
p826
tp827
Rp828
sg41
I608750
sg42
g19
(g23
S'\x00\x00\x00\x00\x00P\xa0@'
p829
tp830
Rp831
ssS'BOWEN JR RAYMOND M'
p832
(dp833
g3
I1858
sg4
g5
sg6
I65907
sg7
I01
sg8
I-833
sg9
S'raymond.bowen@enron.com'
p834
sg11
I974293
sg12
g5
sg13
I1593
sg14
g5
sg15
I27
sg16
I1621
sg17
g5
sg18
g19
(g23
S'\x00\x00\x00\x00\x00t\x9d@'
p835
tp836
Rp837
sg29
I0
sg30
I1350000
sg31
I252055
sg32
I140
sg33
I15
sg34
I252055
sg35
I278601
sg36
I2669589
sg37
g19
(g23
S'\x95\x18\xc7\xfe\x9c\xac\xed?'
p838
tp839
Rp840
sg41
g5
sg42
g19
(g23
S'\x00\x00\x00\x00\x00P\x9b@'
p841
tp842
Rp843
ssS'GILLIS JOHN'
p844
(dp845
g3
g5
sg4
g5
sg6
g5
sg7
I00
sg8
g5
sg9
g5
sg11
g5
sg12
g5
sg13
g5
sg14
g5
sg15
g5
sg16
g5
sg17
g5
sg18
g19
(g23
S'\x00\x00\x00\x00\x00\x00\x00\x00'
p846
tp847
Rp848
sg29
F0.11446620193598861
sg30
g5
sg31
I85641
sg32
g5
sg33
g5
sg34
I75838
sg35
g5
sg36
g5
sg37
I0
sg41
I9803
sg42
g19
(g23
S'\x00\x00\x00\x00\x00\x00\x00\x00'
p849
tp850
Rp851
ssS'FITZGERALD JAY L'
p852
(dp853
g3
I936
sg4
g5
sg6
I23870
sg7
I00
sg8
g5
sg9
S'jay.fitzgerald@enron.com'
p854
sg11
I556416
sg12
g5
sg13
I723
sg14
g5
sg15
I16
sg16
I285414
sg17
g5
sg18
g19
(g23
S'\x00\x00\x00\x00\x00\xc0\x8d@'
p855
tp856
Rp857
sg29
F0.40984841195236227
sg30
I350000
sg31
I1621236
sg32
I1
sg33
I8
sg34
I956775
sg35
I199157
sg36
I1414857
sg37
g19
(g23
S'\t\xe4\x9a\x08\xe4\x9a\xe8?'
p858
tp859
Rp860
sg41
I664461
sg42
g19
(g23
S'\x00\x00\x00\x00\x00\xe0\x86@'
p861
tp862
Rp863
ssS'MORAN MICHAEL P'
p864
(dp865
g3
I672
sg4
g5
sg6
g5
sg7
I00
sg8
g5
sg9
S'michael.moran@enron.com'
p866
sg11
g5
sg12
g5
sg13
I127
sg14
g5
sg15
I19
sg16
g5
sg17
g5
sg18
g19
(g23
S'\x00\x00\x00\x00\x00\x98\x85@'
p867
tp868
Rp869
sg29
F0.2692354651557151
sg30
g5
sg31
I221141
sg32
I0
sg33
I0
sg34
I161602
sg35
g5
sg36
g5
sg37
g19
(g23
S'\xc5dP\xbd{\x86\xc7?'
p870
tp871
Rp872
sg41
I59539
sg42
g19
(g23
S'\x00\x00\x00\x00\x00\xc0_@'
p873
tp874
Rp875
ssS'REDMOND BRIAN L'
p876
(dp877
g3
I1671
sg4
g5
sg6
I14689
sg7
I00
sg8
g5
sg9
S'brian.redmond@enron.com'
p878
sg11
g5
sg12
g5
sg13
I1063
sg14
g5
sg15
I221
sg16
g5
sg17
g5
sg18
g19
(g23
S'\x00\x00\x00\x00\x00\x90\x9d@'
p879
tp880
Rp881
sg29
F0.951676889314051
sg30
g5
sg31
I7890324
sg32
I204
sg33
I49
sg34
I381285
sg35
I96840
sg36
I111529
sg37
g19
(g23
S'\xbf7\xc1\x93\x07B\xe6?'
p882
tp883
Rp884
sg41
I7509039
sg42
g19
(g23
S'\x00\x00\x00\x00\x00\x90\x94@'
p885
tp886
Rp887
ssS'BAZELIDES PHILIP J'
p888
(dp889
g3
g5
sg4
I684694
sg6
g5
sg7
I00
sg8
g5
sg9
g5
sg11
I93750
sg12
g5
sg13
g5
sg14
g5
sg15
g5
sg16
I874
sg17
g5
sg18
g19
(g23
S'\x00\x00\x00\x00\x00\x00\x00\x00'
p890
tp891
Rp892
sg29
F1.0
sg30
g5
sg31
I1599641
sg32
g5
sg33
g5
sg34
g5
sg35
I80818
sg36
I860136
sg37
I0
sg41
I1599641
sg42
g19
(g23
S'\x00\x00\x00\x00\x00\x00\x00\x00'
p893
tp894
Rp895
ssS'BELDEN TIMOTHY N'
p896
(dp897
g3
I7991
sg4
I2144013
sg6
I17355
sg7
I01
sg8
I-2334434
sg9
S'tim.belden@enron.com'
p898
sg11
g5
sg12
g5
sg13
I5521
sg14
g5
sg15
I484
sg16
I210698
sg17
g5
sg18
g19
(g23
S'\x00\x00\x00\x00\x80\x8d\xc0@'
p899
tp900
Rp901
sg29
F0.8581360487258093
sg30
I5249999
sg31
I1110705
sg32
I228
sg33
I108
sg34
I157569
sg35
I213999
sg36
I5501630
sg37
g19
(g23
S'\xf0\t\x95\xcek\x1d\xe6?'
p902
tp903
Rp904
sg41
I953136
sg42
g19
(g23
S'\x00\x00\x00\x00\x00\xe1\xb6@'
p905
tp906
Rp907
ssS'DURAN WILLIAM D'
p908
(dp909
g3
I904
sg4
g5
sg6
I25785
sg7
I00
sg8
g5
sg9
S'w.duran@enron.com'
p910
sg11
I1105218
sg12
g5
sg13
I599
sg14
g5
sg15
I12
sg16
I1568
sg17
g5
sg18
g19
(g23
S'\x00\x00\x00\x00\x00\xa0\x8c@'
p911
tp912
Rp913
sg29
F0.8847950222742259
sg30
I750000
sg31
I1640910
sg32
I106
sg33
I3
sg34
I189041
sg35
I210692
sg36
I2093263
sg37
g19
(g23
S'\x11\x1d\xee\xcf\xce\xbb\xe8?'
p914
tp915
Rp916
sg41
I1451869
sg42
g19
(g23
S'\x00\x00\x00\x00\x00 \x86@'
p917
tp918
Rp919
ssS'THORN TERENCE H'
p920
(dp921
g3
I266
sg4
I16586
sg6
I46145
sg7
I00
sg8
g5
sg9
S'terence.thorn@enron.com'
p922
sg11
I200000
sg12
g5
sg13
I73
sg14
g5
sg15
I41
sg16
I426629
sg17
g5
sg18
g19
(g23
S'\x00\x00\x00\x00\x000s@'
p923
tp924
Rp925
sg29
F0.9241727960254025
sg30
g5
sg31
I4817796
sg32
I0
sg33
I0
sg34
I365320
sg35
I222093
sg36
I911453
sg37
g19
(g23
S',\t7J\xbdo\xce?'
p926
tp927
Rp928
sg41
I4452476
sg42
g19
(g23
S'\x00\x00\x00\x00\x00@R@'
p929
tp930
Rp931
ssS'FASTOW ANDREW S'
p932
(dp933
g3
g5
sg4
g5
sg6
I55921
sg7
I01
sg8
I-1386055
sg9
S'andrew.fastow@enron.com'
p934
sg11
I1736055
sg12
g5
sg13
g5
sg14
g5
sg15
g5
sg16
I277464
sg17
g5
sg18
g19
(g23
S'\x00\x00\x00\x00\x00\x00\x00\x00'
p935
tp936
Rp937
sg29
I0
sg30
I1300000
sg31
I1794412
sg32
g5
sg33
g5
sg34
I1794412
sg35
I440698
sg36
I2424083
sg37
I0
sg41
g5
sg42
g19
(g23
S'\x00\x00\x00\x00\x00\x00\x00\x00'
p938
tp939
Rp940
ssS'FOY JOE'
p941
(dp942
g3
I57
sg4
I181755
sg6
g5
sg7
I00
sg8
g5
sg9
S'tracy.foy@enron.com'
p943
sg11
g5
sg12
g5
sg13
I2
sg14
g5
sg15
I13
sg16
g5
sg17
g5
sg18
g19
(g23
S'\x00\x00\x00\x00\x00\x80Q@'
p944
tp945
Rp946
sg29
F1.0
sg30
g5
sg31
I343434
sg32
I0
sg33
I0
sg34
g5
sg35
g5
sg36
I181755
sg37
g19
(g23
S'\x1d\xd4A\x1d\xd4A\x9d?'
p947
tp948
Rp949
sg41
I343434
sg42
g19
(g23
S'\x00\x00\x00\x00\x00\x00\x00@'
p950
tp951
Rp952
ssS'CALGER CHRISTOPHER F'
p953
(dp954
g3
I2598
sg4
g5
sg6
I35818
sg7
I01
sg8
I-262500
sg9
S'christopher.calger@enron.com'
p955
sg11
I375304
sg12
g5
sg13
I2188
sg14
g5
sg15
I144
sg16
I486
sg17
g5
sg18
g19
(g23
S'\x00\x00\x00\x00\x00l\xa5@'
p956
tp957
Rp958
sg29
I0
sg30
I1250000
sg31
I126027
sg32
I199
sg33
I25
sg34
I126027
sg35
I240189
sg36
I1639297
sg37
g19
(g23
S'h\x8f\x00\x87\x17&\xec?'
p959
tp960
Rp961
sg41
g5
sg42
g19
(g23
S'\x00\x00\x00\x00\x00\xd8\xa2@'
p962
tp963
Rp964
ssS'RICE KENNETH D'
p965
(dp966
g3
I905
sg4
g5
sg6
I46950
sg7
I01
sg8
I-3504386
sg9
S'ken.rice@enron.com'
p967
sg11
I1617011
sg12
g5
sg13
I864
sg14
g5
sg15
I18
sg16
I174839
sg17
g5
sg18
g19
(g23
S'\x00\x00\x00\x00\x00\xd8\x8c@'
p968
tp969
Rp970
sg29
F0.8780809916753388
sg30
I1750000
sg31
I22542539
sg32
I42
sg33
I4
sg34
I2748364
sg35
I420636
sg36
I505050
sg37
g19
(g23
S'\x94\xf1\xdb\xa5\x9e\x8c\xef?'
p971
tp972
Rp973
sg41
I19794175
sg42
g19
(g23
S'\x00\x00\x00\x00\x00p\x8c@'
p974
tp975
Rp976
ssS'KAMINSKI WINCENTY J'
p977
(dp978
g3
I4607
sg4
g5
sg6
I83585
sg7
I00
sg8
g5
sg9
S'vince.kaminski@enron.com'
p979
sg11
I323466
sg12
g5
sg13
I583
sg14
g5
sg15
I14368
sg16
I4669
sg17
g5
sg18
g19
(g23
S'\x00\x00\x00\x00\xc0\x87\xd2@'
p980
tp981
Rp982
sg29
F0.8708788703706929
sg30
I400000
sg31
I976037
sg32
I41
sg33
I171
sg34
I126027
sg35
I275101
sg36
I1086821
sg37
g19
(g23
S'\xe3\x8f\xc9\xdc\x8ds\xa5?'
p983
tp984
Rp985
sg41
I850010
sg42
g19
(g23
S'\x00\x00\x00\x00\x00\xd8\x88@'
p986
tp987
Rp988
ssS'LOCKHART EUGENE E'
p989
(dp990
g3
g5
sg4
g5
sg6
g5
sg7
I00
sg8
g5
sg9
g5
sg11
g5
sg12
g5
sg13
g5
sg14
g5
sg15
g5
sg16
g5
sg17
g5
sg18
g19
(g23
S'\x00\x00\x00\x00\x00\x00\x00\x00'
p991
tp992
Rp993
sg29
I0
sg30
g5
sg31
g5
sg32
g5
sg33
g5
sg34
g5
sg35
g5
sg36
g5
sg37
I0
sg41
g5
sg42
g19
(g23
S'\x00\x00\x00\x00\x00\x00\x00\x00'
p994
tp995
Rp996
ssS'COX DAVID'
p997
(dp998
g3
I102
sg4
g5
sg6
I27861
sg7
I00
sg8
I-41250
sg9
S'chip.cox@enron.com'
p999
sg11
g5
sg12
g5
sg13
I71
sg14
g5
sg15
I33
sg16
I494
sg17
g5
sg18
g19
(g23
S'\x00\x00\x00\x00\x00\xe0`@'
p1000
tp1001
Rp1002
sg29
F0.23717347311417925
sg30
I800000
sg31
I495633
sg32
I0
sg33
I4
sg34
I378082
sg35
I314288
sg36
I1101393
sg37
g19
(g23
S'r\x1c\xc7q\x1c\xc7\xe1?'
p1003
tp1004
Rp1005
sg41
I117551
sg42
g19
(g23
S'\x00\x00\x00\x00\x00\xc0R@'
p1006
tp1007
Rp1008
ssS'OVERDYKE JR JERE C'
p1009
(dp1010
g3
g5
sg4
g5
sg6
I18834
sg7
I00
sg8
g5
sg9
S'jere.overdyke@enron.com'
p1011
sg11
I135836
sg12
g5
sg13
g5
sg14
g5
sg15
g5
sg16
I176
sg17
g5
sg18
g19
(g23
S'\x00\x00\x00\x00\x00\x00\x00\x00'
p1012
tp1013
Rp1014
sg29
F0.7206993163550137
sg30
g5
sg31
I7307594
sg32
g5
sg33
g5
sg34
I2041016
sg35
I94941
sg36
I249787
sg37
I0
sg41
I5266578
sg42
g19
(g23
S'\x00\x00\x00\x00\x00\x00\x00\x00'
p1015
tp1016
Rp1017
ssS'PEREIRA PAULO V. FERRAZ'
p1018
(dp1019
g3
g5
sg4
g5
sg6
I27942
sg7
I00
sg8
I-101250
sg9
g5
sg11
g5
sg12
g5
sg13
g5
sg14
g5
sg15
g5
sg16
g5
sg17
I101250
sg18
g19
(g23
S'\x00\x00\x00\x00\x00\x00\x00\x00'
p1020
tp1021
Rp1022
sg29
I0
sg30
g5
sg31
g5
sg32
g5
sg33
g5
sg34
g5
sg35
g5
sg36
I27942
sg37
I0
sg41
g5
sg42
g19
(g23
S'\x00\x00\x00\x00\x00\x00\x00\x00'
p1023
tp1024
Rp1025
ssS'STABLER FRANK'
p1026
(dp1027
g3
g5
sg4
g5
sg6
I16514
sg7
I00
sg8
g5
sg9
S'frank.stabler@enron.com'
p1028
sg11
g5
sg12
g5
sg13
g5
sg14
g5
sg15
g5
sg16
I356071
sg17
g5
sg18
g19
(g23
S'\x00\x00\x00\x00\x00\x00\x00\x00'
p1029
tp1030
Rp1031
sg29
I0
sg30
I500000
sg31
I511734
sg32
g5
sg33
g5
sg34
I511734
sg35
I239502
sg36
I1112087
sg37
I0
sg41
g5
sg42
g19
(g23
S'\x00\x00\x00\x00\x00\x00\x00\x00'
p1032
tp1033
Rp1034
ssS'SKILLING JEFFREY K'
p1035
(dp1036
g3
I3627
sg4
g5
sg6
I29336
sg7
I01
sg8
g5
sg9
S'jeff.skilling@enron.com'
p1037
sg11
I1920000
sg12
g5
sg13
I2042
sg14
g5
sg15
I108
sg16
I22122
sg17
g5
sg18
g19
(g23
S'\x00\x00\x00\x00\x00.\xad@'
p1038
tp1039
Rp1040
sg29
F0.7377267561269261
sg30
I5600000
sg31
I26093672
sg32
I88
sg33
I30
sg34
I6843672
sg35
I1111258
sg36
I8682716
sg37
g19
(g23
S'\xbf\xf6\x90\xcb\x8a\x81\xe2?'
p1041
tp1042
Rp1043
sg41
I19250000
sg42
g19
(g23
S'\x00\x00\x00\x00\x00\xe0\xa0@'
p1044
tp1045
Rp1046
ssS'BLAKE JR. NORMAN P'
p1047
(dp1048
g3
g5
sg4
g5
sg6
I1279
sg7
I00
sg8
I-113784
sg9
g5
sg11
g5
sg12
g5
sg13
g5
sg14
g5
sg15
g5
sg16
g5
sg17
I113784
sg18
g19
(g23
S'\x00\x00\x00\x00\x00\x00\x00\x00'
p1049
tp1050
Rp1051
sg29
I0
sg30
g5
sg31
g5
sg32
g5
sg33
g5
sg34
g5
sg35
g5
sg36
I1279
sg37
I0
sg41
g5
sg42
g19
(g23
S'\x00\x00\x00\x00\x00\x00\x00\x00'
p1052
tp1053
Rp1054
ssS'SHERRICK JEFFREY B'
p1055
(dp1056
g3
I613
sg4
g5
sg6
g5
sg7
I00
sg8
g5
sg9
S'jeffrey.sherrick@enron.com'
p1057
sg11
g5
sg12
g5
sg13
I583
sg14
g5
sg15
I25
sg16
g5
sg17
g5
sg18
g19
(g23
S'\x00\x00\x00\x00\x00\xf0\x83@'
p1058
tp1059
Rp1060
sg29
F0.7784414243522942
sg30
g5
sg31
I1832468
sg32
I39
sg33
I18
sg34
I405999
sg35
g5
sg36
g5
sg37
g19
(g23
S'\x88*u\x12\xd7\x0c\xf0?'
p1061
tp1062
Rp1063
sg41
I1426469
sg42
g19
(g23
S'\x00\x00\x00\x00\x00\x00\x84@'
p1064
tp1065
Rp1066
ssS'PRENTICE JAMES'
p1067
(dp1068
g3
g5
sg4
I564348
sg6
g5
sg7
I00
sg8
g5
sg9
S'james.prentice@enron.com'
p1069
sg11
g5
sg12
g5
sg13
g5
sg14
g5
sg15
g5
sg16
g5
sg17
g5
sg18
g19
(g23
S'\x00\x00\x00\x00\x00\x00\x00\x00'
p1070
tp1071
Rp1072
sg29
F0.8093138150204559
sg30
g5
sg31
I1095040
sg32
g5
sg33
g5
sg34
I208809
sg35
g5
sg36
I564348
sg37
I0
sg41
I886231
sg42
g19
(g23
S'\x00\x00\x00\x00\x00\x00\x00\x00'
p1073
tp1074
Rp1075
ssS'GRAY RODNEY'
p1076
(dp1077
g3
g5
sg4
I93585
sg6
g5
sg7
I00
sg8
g5
sg9
g5
sg11
I365625
sg12
g5
sg13
g5
sg14
g5
sg15
g5
sg16
I680833
sg17
g5
sg18
g19
(g23
S'\x00\x00\x00\x00\x00\x00\x00\x00'
p1078
tp1079
Rp1080
sg29
I0
sg30
g5
sg31
g5
sg32
g5
sg33
g5
sg34
g5
sg35
I6615
sg36
I1146658
sg37
I0
sg41
g5
sg42
g19
(g23
S'\x00\x00\x00\x00\x00\x00\x00\x00'
p1081
tp1082
Rp1083
ssS'PICKERING MARK R'
p1084
(dp1085
g3
I898
sg4
g5
sg6
I31653
sg7
I00
sg8
g5
sg9
S'mark.pickering@enron.com'
p1086
sg11
g5
sg12
g5
sg13
I728
sg14
I400000
sg15
I67
sg16
g5
sg17
g5
sg18
g19
(g23
S'\x00\x00\x00\x00\x00(\x8e@'
p1087
tp1088
Rp1089
sg29
F1.0
sg30
I300000
sg31
I28798
sg32
I7
sg33
I0
sg34
g5
sg35
I655037
sg36
I1386690
sg37
g19
(g23
S'HJ\xc8\xa9\x80_\xe8?'
p1090
tp1091
Rp1092
sg41
I28798
sg42
g19
(g23
S'\x00\x00\x00\x00\x00\xf8\x86@'
p1093
tp1094
Rp1095
ssS'NOLES JAMES L'
p1096
(dp1097
g3
g5
sg4
I774401
sg6
g5
sg7
I00
sg8
g5
sg9
g5
sg11
g5
sg12
I-94556
sg13
g5
sg14
g5
sg15
g5
sg16
g5
sg17
g5
sg18
g19
(g23
S'\x00\x00\x00\x00\x00\x00\x00\x00'
p1098
tp1099
Rp1100
sg29
I0
sg30
g5
sg31
I368705
sg32
g5
sg33
g5
sg34
I463261
sg35
g5
sg36
I774401
sg37
I0
sg41
g5
sg42
g19
(g23
S'\x00\x00\x00\x00\x00\x00\x00\x00'
p1101
tp1102
Rp1103
ssS'KEAN STEVEN J'
p1104
(dp1105
g3
I12754
sg4
g5
sg6
I41953
sg7
I00
sg8
g5
sg9
S'steven.kean@enron.com'
p1106
sg11
I300000
sg12
g5
sg13
I3639
sg14
g5
sg15
I6759
sg16
I1231
sg17
g5
sg18
g19
(g23
S'\x00\x00\x00\x00@\x0e\xd3@'
p1107
tp1108
Rp1109
sg29
F0.32859370109603386
sg30
I1000000
sg31
I6153642
sg32
I140
sg33
I387
sg34
I4131594
sg35
I404338
sg36
I1747522
sg37
g19
(g23
S'\x15\x98x\xd8\xecS\xcb?'
p1110
tp1111
Rp1112
sg41
I2022048
sg42
g19
(g23
S'\x00\x00\x00\x00\x00F\xb0@'
p1113
tp1114
Rp1115
ssS'FOWLER PEGGY'
p1116
(dp1117
g3
I517
sg4
g5
sg6
g5
sg7
I00
sg8
g5
sg9
S'kulvinder.fowler@enron.com'
p1118
sg11
g5
sg12
g5
sg13
I10
sg14
g5
sg15
I36
sg16
g5
sg17
g5
sg18
g19
(g23
S'\x00\x00\x00\x00\x00H\x81@'
p1119
tp1120
Rp1121
sg29
F0.7027878528057863
sg30
g5
sg31
I1884748
sg32
I0
sg33
I0
sg34
I560170
sg35
g5
sg36
g5
sg37
g19
(g23
S'\t%0\xd8e\x84\x92?'
p1122
tp1123
Rp1124
sg41
I1324578
sg42
g19
(g23
S'\x00\x00\x00\x00\x00\x00$@'
p1125
tp1126
Rp1127
ssS'WASAFF GEORGE'
p1128
(dp1129
g3
I400
sg4
I831299
sg6
g5
sg7
I00
sg8
I-583325
sg9
S'george.wasaff@enron.com'
p1130
sg11
I200000
sg12
g5
sg13
I337
sg14
g5
sg15
I30
sg16
I1425
sg17
g5
sg18
g19
(g23
S'\x00\x00\x00\x00\x00\xe0z@'
p1131
tp1132
Rp1133
sg29
F0.8112420231790382
sg30
I325000
sg31
I2056427
sg32
I22
sg33
I7
sg34
I388167
sg35
I259996
sg36
I1034395
sg37
g19
(g23
S'\x9c\xcb\xb3\xbf\xb9<\xeb?'
p1134
tp1135
Rp1136
sg41
I1668260
sg42
g19
(g23
S'\x00\x00\x00\x00\x00\xe0v@'
p1137
tp1138
Rp1139
ssS'WHITE JR THOMAS E'
p1140
(dp1141
g3
g5
sg4
g5
sg6
I81353
sg7
I00
sg8
g5
sg9
S'thomas.white@enron.com'
p1142
sg11
g5
sg12
g5
sg13
g5
sg14
g5
sg15
g5
sg16
I1085463
sg17
g5
sg18
g19
(g23
S'\x00\x00\x00\x00\x00\x00\x00\x00'
p1143
tp1144
Rp1145
sg29
F0.08564701963923563
sg30
I450000
sg31
I15144123
sg32
g5
sg33
g5
sg34
I13847074
sg35
I317543
sg36
I1934359
sg37
I0
sg41
I1297049
sg42
g19
(g23
S'\x00\x00\x00\x00\x00\x00\x00\x00'
p1146
tp1147
Rp1148
ssS'CHRISTODOULOU DIOMEDES'
p1149
(dp1150
g3
g5
sg4
g5
sg6
g5
sg7
I00
sg8
g5
sg9
S'diomedes.christodoulou@enron.com'
p1151
sg11
g5
sg12
g5
sg13
g5
sg14
g5
sg15
g5
sg16
g5
sg17
g5
sg18
g19
(g23
S'\x00\x00\x00\x00\x00\x00\x00\x00'
p1152
tp1153
Rp1154
sg29
F0.8435755201027989
sg30
g5
sg31
I6077885
sg32
g5
sg33
g5
sg34
I950730
sg35
g5
sg36
g5
sg37
I0
sg41
I5127155
sg42
g19
(g23
S'\x00\x00\x00\x00\x00\x00\x00\x00'
p1155
tp1156
Rp1157
ssS'ALLEN PHILLIP K'
p1158
(dp1159
g3
I2902
sg4
I2869717
sg6
I13868
sg7
I00
sg8
I-3081055
sg9
S'phillip.allen@enron.com'
p1160
sg11
I304805
sg12
I-126027
sg13
I1407
sg14
g5
sg15
I2195
sg16
I152
sg17
g5
sg18
g19
(g23
S'\x00\x00\x00\x00\x00\xe9\xb3@'
p1161
tp1162
Rp1163
sg29
F1.0
sg30
I4175000
sg31
I1729541
sg32
I47
sg33
I65
sg34
I126027
sg35
I201955
sg36
I4484442
sg37
g19
(g23
S'ue\xbc\xf1\xbb\x12\xd3?'
p1164
tp1165
Rp1166
sg41
I1729541
sg42
g19
(g23
S'\x00\x00\x00\x00\x00\xbc\x97@'
p1167
tp1168
Rp1169
ssS'SHARP VICTORIA T'
p1170
(dp1171
g3
I3136
sg4
I187469
sg6
I116337
sg7
I00
sg8
g5
sg9
S'vicki.sharp@enron.com'
p1172
sg11
I422158
sg12
g5
sg13
I2477
sg14
g5
sg15
I136
sg16
I2401
sg17
g5
sg18
g19
(g23
S'\x00\x00\x00\x00\x00\x90\xa9@'
p1173
tp1174
Rp1175
sg29
F0.5688170867939191
sg30
I600000
sg31
I494136
sg32
I24
sg33
I6
sg34
I213063
sg35
I248146
sg36
I1576511
sg37
g19
(g23
S'`\xff\xa8\xc2\xb1\x84\xe8?'
p1176
tp1177
Rp1178
sg41
I281073
sg42
g19
(g23
S'\x00\x00\x00\x00\x00\x96\xa3@'
p1179
tp1180
Rp1181
ssS'JAEDICKE ROBERT'
p1182
(dp1183
g3
g5
sg4
g5
sg6
g5
sg7
I00
sg8
I-25000
sg9
g5
sg11
g5
sg12
I-44093
sg13
g5
sg14
g5
sg15
g5
sg16
g5
sg17
I108750
sg18
g19
(g23
S'\x00\x00\x00\x00\x00\x00\x00\x00'
p1184
tp1185
Rp1186
sg29
F1.0
sg30
g5
sg31
I431750
sg32
g5
sg33
g5
sg34
I44093
sg35
g5
sg36
I83750
sg37
I0
sg41
I431750
sg42
g19
(g23
S'\x00\x00\x00\x00\x00\x00\x00\x00'
p1187
tp1188
Rp1189
ssS'WINOKUR JR. HERBERT S'
p1190
(dp1191
g3
g5
sg4
g5
sg6
I1413
sg7
I00
sg8
I-25000
sg9
g5
sg11
g5
sg12
g5
sg13
g5
sg14
g5
sg15
g5
sg16
g5
sg17
I108579
sg18
g19
(g23
S'\x00\x00\x00\x00\x00\x00\x00\x00'
p1192
tp1193
Rp1194
sg29
I0
sg30
g5
sg31
g5
sg32
g5
sg33
g5
sg34
g5
sg35
g5
sg36
I84992
sg37
I0
sg41
g5
sg42
g19
(g23
S'\x00\x00\x00\x00\x00\x00\x00\x00'
p1195
tp1196
Rp1197
ssS'BROWN MICHAEL'
p1198
(dp1199
g3
I1486
sg4
g5
sg6
I49288
sg7
I00
sg8
g5
sg9
S'michael.brown@enron.com'
p1200
sg11
g5
sg12
g5
sg13
I761
sg14
g5
sg15
I41
sg16
g5
sg17
g5
sg18
g19
(g23
S'\x00\x00\x00\x00\x00\xdc\x97@'
p1201
tp1202
Rp1203
sg29
I0
sg30
g5
sg31
g5
sg32
I13
sg33
I1
sg34
g5
sg35
g5
sg36
I49288
sg37
g19
(g23
S'\xaa\x8d%\xe0\xb1=\xe0?'
p1204
tp1205
Rp1206
sg41
g5
sg42
g19
(g23
S'\x00\x00\x00\x00\x008\x88@'
p1207
tp1208
Rp1209
ssS'BADUM JAMES P'
p1210
(dp1211
g3
g5
sg4
I178980
sg6
I3486
sg7
I00
sg8
g5
sg9
g5
sg11
g5
sg12
g5
sg13
g5
sg14
g5
sg15
g5
sg16
g5
sg17
g5
sg18
g19
(g23
S'\x00\x00\x00\x00\x00\x00\x00\x00'
p1212
tp1213
Rp1214
sg29
F1.0
sg30
g5
sg31
I257817
sg32
g5
sg33
g5
sg34
g5
sg35
g5
sg36
I182466
sg37
I0
sg41
I257817
sg42
g19
(g23
S'\x00\x00\x00\x00\x00\x00\x00\x00'
p1215
tp1216
Rp1217
ssS'HUGHES JAMES A'
p1218
(dp1219
g3
I719
sg4
g5
sg6
g5
sg7
I00
sg8
g5
sg9
S'james.hughes@enron.com'
p1220
sg11
g5
sg12
g5
sg13
I589
sg14
g5
sg15
I34
sg16
g5
sg17
g5
sg18
g19
(g23
S'\x00\x00\x00\x00\x00\x88\x87@'
p1221
tp1222
Rp1223
sg29
F0.6750447516706992
sg30
g5
sg31
I1118394
sg32
I35
sg33
I5
sg34
I363428
sg35
g5
sg36
g5
sg37
g19
(g23
S'\xdf\x81\xa2B\xfc\xba\xea?'
p1224
tp1225
Rp1226
sg41
I754966
sg42
g19
(g23
S'\x00\x00\x00\x00\x00\xa8\x83@'
p1227
tp1228
Rp1229
ssS'REYNOLDS LAWRENCE'
p1230
(dp1231
g3
g5
sg4
I51365
sg6
I8409
sg7
I00
sg8
I-200000
sg9
g5
sg11
I156250
sg12
I-140264
sg13
g5
sg14
g5
sg15
g5
sg16
I202052
sg17
g5
sg18
g19
(g23
S'\x00\x00\x00\x00\x00\x00\x00\x00'
p1232
tp1233
Rp1234
sg29
F0.9854996256416853
sg30
I100000
sg31
I4221891
sg32
g5
sg33
g5
sg34
I201483
sg35
I76399
sg36
I394475
sg37
I0
sg41
I4160672
sg42
g19
(g23
S'\x00\x00\x00\x00\x00\x00\x00\x00'
p1235
tp1236
Rp1237
ssS'DIMICHELE RICHARD G'
p1238
(dp1239
g3
g5
sg4
g5
sg6
I35812
sg7
I00
sg8
g5
sg9
S'richard.dimichele@enron.com'
p1240
sg11
I694862
sg12
g5
sg13
g5
sg14
g5
sg15
g5
sg16
I374689
sg17
g5
sg18
g19
(g23
S'\x00\x00\x00\x00\x00\x00\x00\x00'
p1241
tp1242
Rp1243
sg29
F0.9848484848484849
sg30
I1000000
sg31
I8317782
sg32
g5
sg33
g5
sg34
I126027
sg35
I262788
sg36
I2368151
sg37
I0
sg41
I8191755
sg42
g19
(g23
S'\x00\x00\x00\x00\x00\x00\x00\x00'
p1244
tp1245
Rp1246
ssS'BHATNAGAR SANJAY'
p1247
(dp1248
g3
I523
sg4
g5
sg6
g5
sg7
I00
sg8
g5
sg9
S'sanjay.bhatnagar@enron.com'
p1249
sg11
g5
sg12
I15456290
sg13
I463
sg14
g5
sg15
I29
sg16
I137864
sg17
I137864
sg18
g19
(g23
S'\x00\x00\x00\x00\x00@\x81@'
p1250
tp1251
Rp1252
sg29
I0
sg30
g5
sS'total_stock_value'
p1253
S'NaN'
p1254
sg32
I0
sg33
I1
sg34
I-2604490
sg35
g5
sg36
I15456290
sg37
g19
(g23
S'\xae\x1d\x98k\x07\xe6\xea?'
p1255
tp1256
Rp1257
sg41
I2604490
sg42
g19
(g23
S'\x00\x00\x00\x00\x00\x00}@'
p1258
tp1259
Rp1260
ssS'CARTER REBECCA C'
p1261
(dp1262
g3
I312
sg4
g5
sg6
g5
sg7
I00
sg8
I-159792
sg9
S'rebecca.carter@enron.com'
p1263
sg11
I75000
sg12
I-307301
sg13
I196
sg14
g5
sg15
I15
sg16
I540
sg17
g5
sg18
g19
(g23
S'\x00\x00\x00\x00\x00pt@'
p1264
tp1265
Rp1266
sg29
I0
sg30
I300000
sg31
g5
sg32
I29
sg33
I7
sg34
I307301
sg35
I261809
sg36
I477557
sg37
g19
(g23
S'AkQ\xa8\x0f\xb4\xe6?'
p1267
tp1268
Rp1269
sg41
g5
sg42
g19
(g23
S'\x00\x00\x00\x00\x00\x00m@'
p1270
tp1271
Rp1272
ssS'BUCHANAN HAROLD G'
p1273
(dp1274
g3
I1088
sg4
g5
sg6
I600
sg7
I00
sg8
g5
sg9
S'john.buchanan@enron.com'
p1275
sg11
I304805
sg12
g5
sg13
I23
sg14
g5
sg15
I125
sg16
I1215
sg17
g5
sg18
g19
(g23
S'\x00\x00\x00\x00\x00\xf4\x92@'
p1276
tp1277
Rp1278
sg29
F0.8136618350821336
sg30
I500000
sg31
I1014505
sg32
I0
sg33
I0
sg34
I189041
sg35
I248017
sg36
I1054637
sg37
g19
(g23
S"\x03E\xad'\x94j\x93?"
p1279
tp1280
Rp1281
sg41
I825464
sg42
g19
(g23
S'\x00\x00\x00\x00\x00\x007@'
p1282
tp1283
Rp1284
ssS'YEAP SOON'
p1285
(dp1286
g3
g5
sg4
g5
sg6
I55097
sg7
I00
sg8
g5
sg9
g5
sg11
g5
sg12
g5
sg13
g5
sg14
g5
sg15
g5
sg16
g5
sg17
g5
sg18
g19
(g23
S'\x00\x00\x00\x00\x00\x00\x00\x00'
p1287
tp1288
Rp1289
sg29
F1.0
sg30
g5
sg31
I192758
sg32
g5
sg33
g5
sg34
g5
sg35
g5
sg36
I55097
sg37
I0
sg41
I192758
sg42
g19
(g23
S'\x00\x00\x00\x00\x00\x00\x00\x00'
p1290
tp1291
Rp1292
ssS'MURRAY JULIA H'
p1293
(dp1294
g3
I2192
sg4
g5
sg6
I57580
sg7
I00
sg8
g5
sg9
S'julia.murray@enron.com'
p1295
sg11
I125000
sg12
g5
sg13
I395
sg14
g5
sg15
I45
sg16
I330
sg17
g5
sg18
g19
(g23
S'\x00\x00\x00\x00\x00z\xa1@'
p1296
tp1297
Rp1298
sg29
F0.6702998187329382
sg30
I400000
sg31
I597461
sg32
I11
sg33
I2
sg34
I196983
sg35
I229284
sg36
I812194
sg37
g19
(g23
S'O\xfb\xdc\x19vX\xc7?'
p1299
tp1300
Rp1301
sg41
I400478
sg42
g19
(g23
S'\x00\x00\x00\x00\x00\x80y@'
p1302
tp1303
Rp1304
ssS'GARLAND C KEVIN'
p1305
(dp1306
g3
I209
sg4
g5
sg6
I48405
sg7
I00
sg8
g5
sg9
S'kevin.garland@enron.com'
p1307
sg11
I375304
sg12
g5
sg13
I178
sg14
g5
sg15
I44
sg16
I60814
sg17
g5
sg18
g19
(g23
S'\x00\x00\x00\x00\x00\xa0o@'
p1308
tp1309
Rp1310
sg29
F0.7099747476156415
sg30
I850000
sg31
I896153
sg32
I10
sg33
I27
sg34
I259907
sg35
I231946
sg36
I1566469
sg37
g19
(g23
S'\x10\xb0:\xbe\x941\xeb?'
p1311
tp1312
Rp1313
sg41
I636246
sg42
g19
(g23
S'\x00\x00\x00\x00\x00\xe0j@'
p1314
tp1315
Rp1316
ssS'DODSON KEITH'
p1317
(dp1318
g3
I176
sg4
g5
sg6
I28164
sg7
I00
sg8
g5
sg9
S'keith.dodson@enron.com'
p1319
sg11
g5
sg12
g5
sg13
I114
sg14
g5
sg15
I14
sg16
I774
sg17
g5
sg18
g19
(g23
S'\x00\x00\x00\x00\x00\xc0g@'
p1320
tp1321
Rp1322
sg29
I0
sg30
I70000
sg31
g5
sg32
I10
sg33
I3
sg34
g5
sg35
I221003
sg36
I319941
sg37
g19
(g23
S';V \x8c\xb4c\xe5?'
p1323
tp1324
Rp1325
sg41
g5
sg42
g19
(g23
S'\x00\x00\x00\x00\x00\xc0_@'
p1326
tp1327
Rp1328
ssS'YEAGER F SCOTT'
p1329
(dp1330
g3
g5
sg4
g5
sg6
I53947
sg7
I01
sg8
g5
sg9
S'scott.yeager@enron.com'
p1331
sg11
g5
sg12
g5
sg13
g5
sg14
g5
sg15
g5
sg16
I147950
sg17
g5
sg18
g19
(g23
S'\x00\x00\x00\x00\x00\x00\x00\x00'
p1332
tp1333
Rp1334
sg29
F0.6990930736662875
sg30
g5
sg31
I11884758
sg32
g5
sg33
g5
sg34
I3576206
sg35
I158403
sg36
I360300
sg37
I0
sg41
I8308552
sg42
g19
(g23
S'\x00\x00\x00\x00\x00\x00\x00\x00'
p1335
tp1336
Rp1337
ssS'HIRKO JOSEPH'
p1338
(dp1339
g3
g5
sg4
I10259
sg6
I77978
sg7
I01
sg8
g5
sg9
S'joe.hirko@enron.com'
p1340
sg11
g5
sg12
g5
sg13
g5
sg14
g5
sg15
g5
sg16
I2856
sg17
g5
sg18
g19
(g23
S'\x00\x00\x00\x00\x00\x00\x00\x00'
p1341
tp1342
Rp1343
sg29
F1.0
sg30
g5
sg31
I30766064
sg32
g5
sg33
g5
sg34
g5
sg35
g5
sg36
I91093
sg37
I0
sg41
I30766064
sg42
g19
(g23
S'\x00\x00\x00\x00\x00\x00\x00\x00'
p1344
tp1345
Rp1346
ssS'DIETRICH JANET R'
p1347
(dp1348
g3
I2572
sg4
g5
sg6
I3475
sg7
I00
sg8
g5
sg9
S'janet.dietrich@enron.com'
p1349
sg11
I556416
sg12
g5
sg13
I1902
sg14
g5
sg15
I63
sg16
I473
sg17
g5
sg18
g19
(g23
S'\x00\x00\x00\x00\x00\x96\xa4@'
p1350
tp1351
Rp1352
sg29
F0.8310706149364614
sg30
I600000
sg31
I1865087
sg32
I305
sg33
I14
sg34
I315068
sg35
I250100
sg36
I1410464
sg37
g19
(g23
S'\xf9:Cd\xe8\xf8\xea?'
p1353
tp1354
Rp1355
sg41
I1550019
sg42
g19
(g23
S'\x00\x00\x00\x00\x00Z\xa1@'
p1356
tp1357
Rp1358
ssS'DERRICK JR. JAMES V'
p1359
(dp1360
g3
I2181
sg4
g5
sg6
I51124
sg7
I00
sg8
I-1284000
sg9
S'james.derrick@enron.com'
p1361
sg11
I484000
sg12
I-1787380
sg13
I1401
sg14
g5
sg15
I909
sg16
I7482
sg17
g5
sg18
g19
(g23
S'\x00\x00\x00\x00\x00$\xa8@'
p1362
tp1363
Rp1364
sg29
F1.0
sg30
I800000
sg31
I8831913
sg32
I64
sg33
I20
sg34
I1787380
sg35
I492375
sg36
I550981
sg37
g19
(g23
S'p\xb514\xdd\xc1\xde?'
p1365
tp1366
Rp1367
sg41
I8831913
sg42
g19
(g23
S'\x00\x00\x00\x00\x004\x97@'
p1368
tp1369
Rp1370
ssS'FREVERT MARK A'
p1371
(dp1372
g3
I3275
sg4
I6426990
sg6
I86987
sg7
I00
sg8
I-3367011
sg9
S'mark.frevert@enron.com'
p1373
sg11
I1617011
sg12
g5
sg13
I2979
sg14
I2000000
sg15
I21
sg16
I7427621
sg17
g5
sg18
g19
(g23
S'\x00\x00\x00\x00\x00\xc0\xa9@'
p1374
tp1375
Rp1376
sg29
F0.713540281428528
sg30
I2000000
sg31
I14622185
sg32
I242
sg33
I6
sg34
I4188667
sg35
I1060932
sg36
I17252530
sg37
g19
(g23
S'\xce\xcb">\x81T\xef?'
p1377
tp1378
Rp1379
sg41
I10433518
sg42
g19
(g23
S'\x00\x00\x00\x00\x006\xa9@'
p1380
tp1381
Rp1382
ssS'PAI LOU L'
p1383
(dp1384
g3
g5
sg4
g5
sg6
I32047
sg7
I00
sg8
g5
sg9
S'lou.pai@enron.com'
p1385
sg11
g5
sg12
g5
sg13
g5
sg14
g5
sg15
g5
sg16
I1829457
sg17
g5
sg18
g19
(g23
S'\x00\x00\x00\x00\x00\x00\x00\x00'
p1386
tp1387
Rp1388
sg29
F0.6450672665508715
sg30
I1000000
sg31
I23817930
sg32
g5
sg33
g5
sg34
I8453763
sg35
I261879
sg36
I3123383
sg37
I0
sg41
I15364167
sg42
g19
(g23
S'\x00\x00\x00\x00\x00\x00\x00\x00'
p1389
tp1390
Rp1391
ssS'BAY FRANKLIN R'
p1392
(dp1393
g3
g5
sg4
I260455
sg6
I129142
sg7
I00
sg8
I-201641
sg9
S'frank.bay@enron.com'
p1394
sg11
g5
sg12
I-82782
sg13
g5
sg14
g5
sg15
g5
sg16
I69
sg17
g5
sg18
g19
(g23
S'\x00\x00\x00\x00\x00\x00\x00\x00'
p1395
tp1396
Rp1397
sg29
I0
sg30
I400000
sg31
I63014
sg32
g5
sg33
g5
sg34
I145796
sg35
I239671
sg36
I827696
sg37
I0
sg41
g5
sg42
g19
(g23
S'\x00\x00\x00\x00\x00\x00\x00\x00'
p1398
tp1399
Rp1400
ssS'HAYSLETT RODERICK J'
p1401
(dp1402
g3
I2649
sg4
g5
sg6
g5
sg7
I00
sg8
g5
sg9
S'rod.hayslett@enron.com'
p1403
sg11
g5
sg12
g5
sg13
I571
sg14
g5
sg15
I1061
sg16
g5
sg17
g5
sg18
g19
(g23
S'\x00\x00\x00\x00\x00\xfc\xac@'
p1404
tp1405
Rp1406
sg29
I0
sg30
g5
sg31
I346663
sg32
I35
sg33
I38
sg34
I346663
sg35
g5
sg36
g5
sg37
g19
(g23
S'\x11\xfeq\xba\x078\xc6?'
p1407
tp1408
Rp1409
sg41
g5
sg42
g19
(g23
S'\x00\x00\x00\x00\x00 \x84@'
p1410
tp1411
Rp1412
ssS'FUGH JOHN L'
p1413
(dp1414
g3
g5
sg4
I50591
sg6
g5
sg7
I00
sg8
g5
sg9
g5
sg11
g5
sg12
g5
sg13
g5
sg14
g5
sg15
g5
sg16
g5
sg17
g5
sg18
g19
(g23
S'\x00\x00\x00\x00\x00\x00\x00\x00'
p1415
tp1416
Rp1417
sg29
F1.0
sg30
g5
sg31
I176378
sg32
g5
sg33
g5
sg34
g5
sg35
g5
sg36
I50591
sg37
I0
sg41
I176378
sg42
g19
(g23
S'\x00\x00\x00\x00\x00\x00\x00\x00'
p1418
tp1419
Rp1420
ssS'FALLON JAMES B'
p1421
(dp1422
g3
I1755
sg4
g5
sg6
I95924
sg7
I00
sg8
g5
sg9
S'jim.fallon@enron.com'
p1423
sg11
I374347
sg12
g5
sg13
I1604
sg14
g5
sg15
I75
sg16
I401481
sg17
g5
sg18
g19
(g23
S'\x00\x00\x00\x00\x00\x98\x9c@'
p1424
tp1425
Rp1426
sg29
F0.40312870996771993
sg30
I2500000
sg31
I2332399
sg32
I42
sg33
I37
sg34
I1392142
sg35
I304588
sg36
I3676340
sg37
g19
(g23
S'/H\xca?\xf4m\xed?'
p1427
tp1428
Rp1429
sg41
I940257
sg42
g19
(g23
S'\x00\x00\x00\x00\x00L\x9a@'
p1430
tp1431
Rp1432
ssS'KOENIG MARK E'
p1433
(dp1434
g3
I2374
sg4
g5
sg6
I127017
sg7
I01
sg8
g5
sg9
S'mark.koenig@enron.com'
p1435
sg11
I300000
sg12
g5
sg13
I2271
sg14
g5
sg15
I61
sg16
I150458
sg17
g5
sg18
g19
(g23
S'\x00\x00\x00\x00\x00\x06\xa3@'
p1436
tp1437
Rp1438
sg29
F0.3498529990026327
sg30
I700000
sg31
I1920055
sg32
I53
sg33
I15
sg34
I1248318
sg35
I309946
sg36
I1587421
sg37
g19
(g23
S'\x88\xfa\xbb\xac\x07\xbd\xee?'
p1439
tp1440
Rp1441
sg41
I671737
sg42
g19
(g23
S'\x00\x00\x00\x00\x00F\xa2@'
p1442
tp1443
Rp1444
ssS'SAVAGE FRANK'
p1445
(dp1446
g3
g5
sg4
g5
sg6
g5
sg7
I00
sg8
I-121284
sg9
g5
sg11
g5
sg12
g5
sg13
g5
sg14
g5
sg15
g5
sg16
g5
sg17
I125034
sg18
g19
(g23
S'\x00\x00\x00\x00\x00\x00\x00\x00'
p1447
tp1448
Rp1449
sg29
I0
sg30
g5
sg31
g5
sg32
g5
sg33
g5
sg34
g5
sg35
g5
sg36
I3750
sg37
I0
sg41
g5
sg42
g19
(g23
S'\x00\x00\x00\x00\x00\x00\x00\x00'
p1450
tp1451
Rp1452
ssS'IZZO LAWRENCE L'
p1453
(dp1454
g3
I496
sg4
g5
sg6
I28093
sg7
I00
sg8
g5
sg9
S'larry.izzo@enron.com'
p1455
sg11
I312500
sg12
g5
sg13
I437
sg14
g5
sg15
I19
sg16
I1553729
sg17
g5
sg18
g19
(g23
S'\x00\x00\x00\x00\x00\x18\x80@'
p1456
tp1457
Rp1458
sg29
F0.3720239588452194
sg30
g5
sg31
I5819980
sg32
I28
sg33
I5
sg34
I3654808
sg35
I85274
sg36
I1979596
sg37
g19
(g23
S'<\xd8o\xb514\xed?'
p1459
tp1460
Rp1461
sg41
I2165172
sg42
g19
(g23
S'\x00\x00\x00\x00\x00`}@'
p1462
tp1463
Rp1464
ssS'TILNEY ELIZABETH A'
p1465
(dp1466
g3
I460
sg4
g5
sg6
g5
sg7
I00
sg8
I-575000
sg9
S'elizabeth.tilney@enron.com'
p1467
sg11
I275000
sg12
g5
sg13
I379
sg14
g5
sg15
I19
sg16
I152055
sg17
g5
sg18
g19
(g23
S'\x00\x00\x00\x00\x00\xf0}@'
p1468
tp1469
Rp1470
sg29
F0.5061889897794771
sg30
I300000
sg31
I1168042
sg32
I10
sg33
I11
sg34
I576792
sg35
I247338
sg36
I399393
sg37
g19
(g23
S'\xbc`\x15(\xeb\xb8\xea?'
p1471
tp1472
Rp1473
sg41
I591250
sg42
g19
(g23
S'\x00\x00\x00\x00\x00\x00y@'
p1474
tp1475
Rp1476
ssS'MARTIN AMANDA K'
p1477
(dp1478
g3
I1522
sg4
I85430
sg6
I8211
sg7
I00
sg8
g5
sg9
S'a..martin@enron.com'
p1479
sg11
I5145434
sg12
g5
sg13
I477
sg14
g5
sg15
I230
sg16
I2818454
sg17
g5
sg18
g19
(g23
S'\x00\x00\x00\x00\x00`\x9b@'
p1480
tp1481
Rp1482
sg29
F1.0
sg30
g5
sg31
I2070306
sg32
I8
sg33
I0
sg34
g5
sg35
I349487
sg36
I8407016
sg37
g19
(g23
S'x\x9b\xe1m\x86\xb7\xd1?'
p1483
tp1484
Rp1485
sg41
I2070306
sg42
g19
(g23
S'\x00\x00\x00\x00\x00P~@'
p1486
tp1487
Rp1488
ssS'BUY RICHARD B'
p1489
(dp1490
g3
I3523
sg4
I649584
sg6
g5
sg7
I00
sg8
I-694862
sg9
S'rick.buy@enron.com'
p1491
sg11
I769862
sg12
g5
sg13
I2333
sg14
g5
sg15
I1053
sg16
I400572
sg17
g5
sg18
g19
(g23
S'\x00\x00\x00\x00\x00\xe0\xb1@'
p1492
tp1493
Rp1494
sg29
F0.7382305550636237
sg30
I900000
sg31
I3444470
sg32
I156
sg33
I71
sg34
I901657
sg35
I330546
sg36
I2355702
sg37
g19
(g23
S'\xfbL[\xe3\xef\xe6\xe1?'
p1495
tp1496
Rp1497
sg41
I2542813
sg42
g19
(g23
S'\x00\x00\x00\x00\x00\x00\xa4@'
p1498
tp1499
Rp1500
ssS'GRAMM WENDY L'
p1501
(dp1502
g3
g5
sg4
g5
sg6
g5
sg7
I00
sg8
g5
sg9
g5
sg11
g5
sg12
g5
sg13
g5
sg14
g5
sg15
g5
sg16
g5
sg17
I119292
sg18
g19
(g23
S'\x00\x00\x00\x00\x00\x00\x00\x00'
p1503
tp1504
Rp1505
sg29
I0
sg30
g5
sg31
g5
sg32
g5
sg33
g5
sg34
g5
sg35
g5
sg36
I119292
sg37
I0
sg41
g5
sg42
g19
(g23
S'\x00\x00\x00\x00\x00\x00\x00\x00'
p1506
tp1507
Rp1508
ssS'CAUSEY RICHARD A'
p1509
(dp1510
g3
I1892
sg4
g5
sg6
I30674
sg7
I01
sg8
I-235000
sg9
S'richard.causey@enron.com'
p1511
sg11
I350000
sg12
g5
sg13
I1585
sg14
g5
sg15
I49
sg16
I307895
sg17
g5
sg18
g19
(g23
S'\x00\x00\x00\x00\x00T\x9e@'
p1512
tp1513
Rp1514
sg29
I0
sg30
I1000000
sg31
I2502063
sg32
I58
sg33
I12
sg34
I2502063
sg35
I415189
sg36
I1868758
sg37
g19
(g23
S'>\xbf~\x83\xefH\xeb?'
p1515
tp1516
Rp1517
sg41
g5
sg42
g19
(g23
S'\x00\x00\x00\x00\x00\xdc\x99@'
p1518
tp1519
Rp1520
ssS'TAYLOR MITCHELL S'
p1521
(dp1522
g3
I533
sg4
I227449
sg6
g5
sg7
I00
sg8
g5
sg9
S'mitchell.taylor@enron.com'
p1523
sg11
g5
sg12
g5
sg13
I300
sg14
g5
sg15
I29
sg16
g5
sg17
g5
sg18
g19
(g23
S'\x00\x00\x00\x00\x00\x90\x81@'
p1524
tp1525
Rp1526
sg29
F0.849455067064561
sg30
I600000
sg31
I3745048
sg32
I0
sg33
I0
sg34
I563798
sg35
I265214
sg36
I1092663
sg37
g19
(g23
S'a\xdd\x15(\xf4\x14\xe1?'
p1527
tp1528
Rp1529
sg41
I3181250
sg42
g19
(g23
S'\x00\x00\x00\x00\x00\xc0r@'
p1530
tp1531
Rp1532
ssS'DONAHUE JR JEFFREY M'
p1533
(dp1534
g3
I865
sg4
g5
sg6
I96268
sg7
I00
sg8
I-300000
sg9
S'jeff.donahue@enron.com'
p1535
sg11
g5
sg12
g5
sg13
I772
sg14
g5
sg15
I22
sg16
I891
sg17
g5
sg18
g19
(g23
S'\x00\x00\x00\x00\x00\xb8\x8b@'
p1536
tp1537
Rp1538
sg29
F0.7085370050361336
sg30
I800000
sg31
I1080988
sg32
I188
sg33
I11
sg34
I315068
sg35
I278601
sg36
I875760
sg37
g19
(g23
S'\xe5X\x94r\xe5\x83\xf1?'
p1539
tp1540
Rp1541
sg41
I765920
sg42
g19
(g23
S'\x00\x00\x00\x00\x00X\x8e@'
p1542
tp1543
Rp1544
ssS'GLISAN JR BEN F'
p1545
(dp1546
g3
I873
sg4
g5
sg6
I125978
sg7
I01
sg8
g5
sg9
S'ben.glisan@enron.com'
p1547
sg11
I71023
sg12
g5
sg13
I874
sg14
g5
sg15
I16
sg16
I200308
sg17
g5
sg18
g19
(g23
S'\x00\x00\x00\x00\x00\xc8\x8b@'
p1548
tp1549
Rp1550
sg29
F0.49416219465516487
sg30
I600000
sg31
I778546
sg32
I52
sg33
I6
sg34
I393818
sg35
I274975
sg36
I1272284
sg37
g19
(g23
S'2\xf40\x86\x1e\xc6\xf0?'
p1551
tp1552
Rp1553
sg41
I384728
sg42
g19
(g23
S'\x00\x00\x00\x00\x00 \x8d@'
p1554
tp1555
Rp1556
ss.