(lp0
S'poi'
p1
aS'total_stock_value'
p2
aS'exercised_stock_options'
p3
aS'salary'
p4
aS'bonus'
p5
aS'message_shared_fraction'
p6
aS'restricted_stock'
p7
aS'expenses'
p8
aS'total_messages_with_poi'
p9
aS'shared_receipt_with_poi'
p10
aS'deferred_income'
p11
aS'from_poi_to_this_person'
p12
aS'total_payments'
p13
a.